---
triple:          'arm64-apple-darwin'
binary-path:     file
relocations:
  - { offsetInCU: 0xD907, offset: 0xD907, size: 0x8, addend: 0x0, symName: __ZStL8__ioinit, symObjAddr: 0x65A40, symBinAddr: 0x100014000, symSize: 0x0 }
  - { offsetInCU: 0xDDF9, offset: 0xDDF9, size: 0x8, addend: 0x0, symName: __ZL18electron_rest_mass, symObjAddr: 0x3D38, symBinAddr: 0x100008EF8, symSize: 0x0 }
  - { offsetInCU: 0xE84A, offset: 0xE84A, size: 0x8, addend: 0x0, symName: __GLOBAL__sub_I_assignment_5.cpp, symObjAddr: 0x3F74, symBinAddr: 0x100004B1C, symSize: 0x1C }
  - { offsetInCU: 0xE86B, offset: 0xE86B, size: 0x8, addend: 0x0, symName: __Z41__static_initialization_and_destruction_0ii, symObjAddr: 0x3F14, symBinAddr: 0x100004ABC, symSize: 0x60 }
  - { offsetInCU: 0xE87A, offset: 0xE87A, size: 0x8, addend: 0x0, symName: __ZNSt10_Head_baseILm1ESt14default_deleteI8ElectronELb1EE7_M_headERS3_, symObjAddr: 0x3D18, symBinAddr: 0x100004AA8, symSize: 0x14 }
  - { offsetInCU: 0xE8A1, offset: 0xE8A1, size: 0x8, addend: 0x0, symName: __ZNSt11_Tuple_implILm1EJSt14default_deleteI8ElectronEEE7_M_headERS3_, symObjAddr: 0x3CFC, symBinAddr: 0x100004A8C, symSize: 0x1C }
  - { offsetInCU: 0xE8C9, offset: 0xE8C9, size: 0x8, addend: 0x0, symName: __ZNSt10_Head_baseILm0EP8ElectronLb0EE7_M_headERS2_, symObjAddr: 0x3CE8, symBinAddr: 0x100004A78, symSize: 0x14 }
  - { offsetInCU: 0xE8F0, offset: 0xE8F0, size: 0x8, addend: 0x0, symName: __ZSt12__get_helperILm1ESt14default_deleteI8ElectronEJEERT0_RSt11_Tuple_implIXT_EJS3_DpT1_EE, symObjAddr: 0x3CCC, symBinAddr: 0x100004A5C, symSize: 0x1C }
  - { offsetInCU: 0xE930, offset: 0xE930, size: 0x8, addend: 0x0, symName: __ZNSt11_Tuple_implILm0EJP8ElectronSt14default_deleteIS0_EEE7_M_headERS4_, symObjAddr: 0x3CB0, symBinAddr: 0x100004A40, symSize: 0x1C }
  - { offsetInCU: 0xE95E, offset: 0xE95E, size: 0x8, addend: 0x0, symName: __ZSt3getILm1EJP8ElectronSt14default_deleteIS0_EEERNSt13tuple_elementIXT_ESt5tupleIJDpT0_EEE4typeERS8_, symObjAddr: 0x3C94, symBinAddr: 0x100004A24, symSize: 0x1C }
  - { offsetInCU: 0xE9A0, offset: 0xE9A0, size: 0x8, addend: 0x0, symName: __ZSt12__get_helperILm0EP8ElectronJSt14default_deleteIS0_EEERT0_RSt11_Tuple_implIXT_EJS4_DpT1_EE, symObjAddr: 0x3C78, symBinAddr: 0x100004A08, symSize: 0x1C }
  - { offsetInCU: 0xE9EA, offset: 0xE9EA, size: 0x8, addend: 0x0, symName: __ZNSt15__uniq_ptr_implI8ElectronSt14default_deleteIS0_EE10_M_deleterEv, symObjAddr: 0x3C5C, symBinAddr: 0x1000049EC, symSize: 0x1C }
  - { offsetInCU: 0xEA14, offset: 0xEA14, size: 0x8, addend: 0x0, symName: __ZSt3getILm0EJP8ElectronSt14default_deleteIS0_EEERNSt13tuple_elementIXT_ESt5tupleIJDpT0_EEE4typeERS8_, symObjAddr: 0x3C40, symBinAddr: 0x1000049D0, symSize: 0x1C }
  - { offsetInCU: 0xEA56, offset: 0xEA56, size: 0x8, addend: 0x0, symName: __ZSt19__relocate_object_aISt10unique_ptrI6PhotonSt14default_deleteIS1_EES4_SaIS4_EEvPT_PT0_RT1_, symObjAddr: 0x3BF4, symBinAddr: 0x100004984, symSize: 0x4C }
  - { offsetInCU: 0xEABD, offset: 0xEABD, size: 0x8, addend: 0x0, symName: __ZNK9__gnu_cxx13new_allocatorISt10unique_ptrI6PhotonSt14default_deleteIS2_EEE8max_sizeEv, symObjAddr: 0x3BD8, symBinAddr: 0x100004968, symSize: 0x1C }
  - { offsetInCU: 0xEAE1, offset: 0xEAE1, size: 0x8, addend: 0x0, symName: __ZSt19__relocate_object_aISt10unique_ptrI7NucleusSt14default_deleteIS1_EES4_SaIS4_EEvPT_PT0_RT1_, symObjAddr: 0x3B8C, symBinAddr: 0x10000491C, symSize: 0x4C }
  - { offsetInCU: 0xEB48, offset: 0xEB48, size: 0x8, addend: 0x0, symName: __ZNK9__gnu_cxx13new_allocatorISt10unique_ptrI7NucleusSt14default_deleteIS2_EEE8max_sizeEv, symObjAddr: 0x3B70, symBinAddr: 0x100004900, symSize: 0x1C }
  - { offsetInCU: 0xEB6C, offset: 0xEB6C, size: 0x8, addend: 0x0, symName: __ZNSt10_Head_baseILm1ESt14default_deleteI6PhotonELb1EE7_M_headERS3_, symObjAddr: 0x3B5C, symBinAddr: 0x1000048EC, symSize: 0x14 }
  - { offsetInCU: 0xEB93, offset: 0xEB93, size: 0x8, addend: 0x0, symName: __ZNSt10_Head_baseILm0EP8ElectronLb0EE7_M_headERKS2_, symObjAddr: 0x3B48, symBinAddr: 0x1000048D8, symSize: 0x14 }
  - { offsetInCU: 0xEBBE, offset: 0xEBBE, size: 0x8, addend: 0x0, symName: __ZNKSt14default_deleteI8ElectronEclEPS0_, symObjAddr: 0x3B10, symBinAddr: 0x1000048A0, symSize: 0x38 }
  - { offsetInCU: 0xEBF7, offset: 0xEBF7, size: 0x8, addend: 0x0, symName: __ZSt4moveIRP8ElectronEONSt16remove_referenceIT_E4typeEOS4_, symObjAddr: 0x3AFC, symBinAddr: 0x10000488C, symSize: 0x14 }
  - { offsetInCU: 0xEC2B, offset: 0xEC2B, size: 0x8, addend: 0x0, symName: __ZNSt10unique_ptrI8ElectronSt14default_deleteIS0_EE11get_deleterEv, symObjAddr: 0x3AE0, symBinAddr: 0x100004870, symSize: 0x1C }
  - { offsetInCU: 0xEC53, offset: 0xEC53, size: 0x8, addend: 0x0, symName: __ZNSt15__uniq_ptr_implI8ElectronSt14default_deleteIS0_EE6_M_ptrEv, symObjAddr: 0x3AC4, symBinAddr: 0x100004854, symSize: 0x1C }
  - { offsetInCU: 0xEC77, offset: 0xEC77, size: 0x8, addend: 0x0, symName: __ZNSt10_Head_baseILm0EP6PhotonLb0EE7_M_headERKS2_, symObjAddr: 0x3AB0, symBinAddr: 0x100004840, symSize: 0x14 }
  - { offsetInCU: 0xEC9E, offset: 0xEC9E, size: 0x8, addend: 0x0, symName: __ZSt14__relocate_a_1IPSt10unique_ptrI6PhotonSt14default_deleteIS1_EES5_SaIS4_EET0_T_S8_S7_RT1_, symObjAddr: 0x3A2C, symBinAddr: 0x1000047BC, symSize: 0x84 }
  - { offsetInCU: 0xED21, offset: 0xED21, size: 0x8, addend: 0x0, symName: __ZSt12__niter_baseIPSt10unique_ptrI6PhotonSt14default_deleteIS1_EEET_S6_, symObjAddr: 0x3A18, symBinAddr: 0x1000047A8, symSize: 0x14 }
  - { offsetInCU: 0xED52, offset: 0xED52, size: 0x8, addend: 0x0, symName: __ZNSt16allocator_traitsISaISt10unique_ptrI6PhotonSt14default_deleteIS1_EEEE8max_sizeERKS5_, symObjAddr: 0x39FC, symBinAddr: 0x10000478C, symSize: 0x1C }
  - { offsetInCU: 0xED7A, offset: 0xED7A, size: 0x8, addend: 0x0, symName: __ZNSt10_Head_baseILm0EP7NucleusLb0EE7_M_headERKS2_, symObjAddr: 0x39E8, symBinAddr: 0x100004778, symSize: 0x14 }
  - { offsetInCU: 0xEE09, offset: 0xEE09, size: 0x8, addend: 0x0, symName: __ZNSt14default_deleteI7NucleusEC1I18RadioactiveNucleusvEERKS_IT_E, symObjAddr: 0x39D0, symBinAddr: 0x100004760, symSize: 0x18 }
  - { offsetInCU: 0xEDFE, offset: 0xEDFE, size: 0x8, addend: 0x0, symName: __ZNSt10_Head_baseILm1ESt14default_deleteI18RadioactiveNucleusELb1EE7_M_headERS3_, symObjAddr: 0x39BC, symBinAddr: 0x10000474C, symSize: 0x14 }
  - { offsetInCU: 0xEE85, offset: 0xEE85, size: 0x8, addend: 0x0, symName: __ZNSt10_Head_baseILm1ESt14default_deleteI18RadioactiveNucleusELb1EEC2Ev, symObjAddr: 0x39A8, symBinAddr: 0x100004738, symSize: 0x14 }
  - { offsetInCU: 0xEE62, offset: 0xEE62, size: 0x8, addend: 0x0, symName: __ZSt14__relocate_a_1IPSt10unique_ptrI7NucleusSt14default_deleteIS1_EES5_SaIS4_EET0_T_S8_S7_RT1_, symObjAddr: 0x3924, symBinAddr: 0x1000046B4, symSize: 0x84 }
  - { offsetInCU: 0xEEE5, offset: 0xEEE5, size: 0x8, addend: 0x0, symName: __ZSt12__niter_baseIPSt10unique_ptrI7NucleusSt14default_deleteIS1_EEET_S6_, symObjAddr: 0x3910, symBinAddr: 0x1000046A0, symSize: 0x14 }
  - { offsetInCU: 0xEF1C, offset: 0xEF1C, size: 0x8, addend: 0x0, symName: __ZSt3minImERKT_S2_S2_, symObjAddr: 0x38D8, symBinAddr: 0x100004668, symSize: 0x38 }
  - { offsetInCU: 0xEF5B, offset: 0xEF5B, size: 0x8, addend: 0x0, symName: __ZNSt16allocator_traitsISaISt10unique_ptrI7NucleusSt14default_deleteIS1_EEEE8max_sizeERKS5_, symObjAddr: 0x38BC, symBinAddr: 0x10000464C, symSize: 0x1C }
  - { offsetInCU: 0xEF83, offset: 0xEF83, size: 0x8, addend: 0x0, symName: __ZNSt10_Head_baseILm1ESt14default_deleteI7NucleusELb1EE7_M_headERS3_, symObjAddr: 0x38A8, symBinAddr: 0x100004638, symSize: 0x14 }
  - { offsetInCU: 0xF00D, offset: 0xF00D, size: 0x8, addend: 0x0, symName: __ZNSt14default_deleteI7NucleusEC1I13StableNucleusvEERKS_IT_E, symObjAddr: 0x3890, symBinAddr: 0x100004620, symSize: 0x18 }
  - { offsetInCU: 0xF007, offset: 0xF007, size: 0x8, addend: 0x0, symName: __ZNSt10_Head_baseILm1ESt14default_deleteI13StableNucleusELb1EE7_M_headERS3_, symObjAddr: 0x387C, symBinAddr: 0x10000460C, symSize: 0x14 }
  - { offsetInCU: 0xF089, offset: 0xF089, size: 0x8, addend: 0x0, symName: __ZNSt10_Head_baseILm1ESt14default_deleteI13StableNucleusELb1EEC2Ev, symObjAddr: 0x3868, symBinAddr: 0x1000045F8, symSize: 0x14 }
  - { offsetInCU: 0xF06B, offset: 0xF06B, size: 0x8, addend: 0x0, symName: __ZNSt11_Tuple_implILm1EJSt14default_deleteI6PhotonEEE7_M_headERS3_, symObjAddr: 0x384C, symBinAddr: 0x1000045DC, symSize: 0x1C }
  - { offsetInCU: 0xF093, offset: 0xF093, size: 0x8, addend: 0x0, symName: __ZNSt10_Head_baseILm0EP6PhotonLb0EE7_M_headERS2_, symObjAddr: 0x3838, symBinAddr: 0x1000045C8, symSize: 0x14 }
  - { offsetInCU: 0xF0BA, offset: 0xF0BA, size: 0x8, addend: 0x0, symName: __ZNSt11_Tuple_implILm0EJP8ElectronSt14default_deleteIS0_EEE7_M_headERKS4_, symObjAddr: 0x381C, symBinAddr: 0x1000045AC, symSize: 0x1C }
  - { offsetInCU: 0xF14C, offset: 0xF14C, size: 0x8, addend: 0x0, symName: __ZNSt10unique_ptrI8ElectronSt14default_deleteIS0_EED1Ev, symObjAddr: 0x37B4, symBinAddr: 0x100004544, symSize: 0x68 }
  - { offsetInCU: 0xF166, offset: 0xF166, size: 0x8, addend: 0x0, symName: __ZNSt11_Tuple_implILm0EJP6PhotonSt14default_deleteIS0_EEE7_M_headERKS4_, symObjAddr: 0x3798, symBinAddr: 0x100004528, symSize: 0x1C }
  - { offsetInCU: 0xF18E, offset: 0xF18E, size: 0x8, addend: 0x0, symName: __ZSt12__relocate_aIPSt10unique_ptrI6PhotonSt14default_deleteIS1_EES5_SaIS4_EET0_T_S8_S7_RT1_, symObjAddr: 0x373C, symBinAddr: 0x1000044CC, symSize: 0x5C }
  - { offsetInCU: 0xF205, offset: 0xF205, size: 0x8, addend: 0x0, symName: __ZN9__gnu_cxx13new_allocatorISt10unique_ptrI6PhotonSt14default_deleteIS2_EEE8allocateEmPKv, symObjAddr: 0x36C4, symBinAddr: 0x100004454, symSize: 0x78 }
  - { offsetInCU: 0xF255, offset: 0xF255, size: 0x8, addend: 0x0, symName: __ZNK9__gnu_cxx13new_allocatorISt10unique_ptrI6PhotonSt14default_deleteIS2_EEE11_M_max_sizeEv, symObjAddr: 0x36B0, symBinAddr: 0x100004440, symSize: 0x14 }
  - { offsetInCU: 0xF27D, offset: 0xF27D, size: 0x8, addend: 0x0, symName: __ZNKSt12_Vector_baseISt10unique_ptrI6PhotonSt14default_deleteIS1_EESaIS4_EE19_M_get_Tp_allocatorEv, symObjAddr: 0x369C, symBinAddr: 0x10000442C, symSize: 0x14 }
  - { offsetInCU: 0xF2A1, offset: 0xF2A1, size: 0x8, addend: 0x0, symName: __ZNSt6vectorISt10unique_ptrI6PhotonSt14default_deleteIS1_EESaIS4_EE11_S_max_sizeERKS5_, symObjAddr: 0x3664, symBinAddr: 0x1000043F4, symSize: 0x38 }
  - { offsetInCU: 0xF34C, offset: 0xF34C, size: 0x8, addend: 0x0, symName: __ZNSt11_Tuple_implILm1EJSt14default_deleteI6PhotonEEEC2EOS3_, symObjAddr: 0x364C, symBinAddr: 0x1000043DC, symSize: 0x18 }
  - { offsetInCU: 0xF343, offset: 0xF343, size: 0x8, addend: 0x0, symName: __ZSt4moveIRSt5tupleIJP6PhotonSt14default_deleteIS1_EEEEONSt16remove_referenceIT_E4typeEOS8_, symObjAddr: 0x3638, symBinAddr: 0x1000043C8, symSize: 0x14 }
  - { offsetInCU: 0xF373, offset: 0xF373, size: 0x8, addend: 0x0, symName: __ZNSt11_Tuple_implILm0EJP7NucleusSt14default_deleteIS0_EEE7_M_headERKS4_, symObjAddr: 0x361C, symBinAddr: 0x1000043AC, symSize: 0x1C }
  - { offsetInCU: 0xF428, offset: 0xF428, size: 0x8, addend: 0x0, symName: __ZNSt10_Head_baseILm1ESt14default_deleteI7NucleusELb1EEC2IS0_I18RadioactiveNucleusEEEOT_, symObjAddr: 0x35E0, symBinAddr: 0x100004370, symSize: 0x3C }
  - { offsetInCU: 0xF406, offset: 0xF406, size: 0x8, addend: 0x0, symName: __ZNSt11_Tuple_implILm1EJSt14default_deleteI18RadioactiveNucleusEEE7_M_headERS3_, symObjAddr: 0x35C4, symBinAddr: 0x100004354, symSize: 0x1C }
  - { offsetInCU: 0xF42E, offset: 0xF42E, size: 0x8, addend: 0x0, symName: __ZNSt10_Head_baseILm0EP18RadioactiveNucleusLb0EE7_M_headERS2_, symObjAddr: 0x35B0, symBinAddr: 0x100004340, symSize: 0x14 }
  - { offsetInCU: 0xF4A2, offset: 0xF4A2, size: 0x8, addend: 0x0, symName: __ZNSt10_Head_baseILm0EP18RadioactiveNucleusLb0EEC2Ev, symObjAddr: 0x3594, symBinAddr: 0x100004324, symSize: 0x1C }
  - { offsetInCU: 0xF4F1, offset: 0xF4F1, size: 0x8, addend: 0x0, symName: __ZNSt11_Tuple_implILm1EJSt14default_deleteI18RadioactiveNucleusEEEC2Ev, symObjAddr: 0x3574, symBinAddr: 0x100004304, symSize: 0x20 }
  - { offsetInCU: 0xF4CF, offset: 0xF4CF, size: 0x8, addend: 0x0, symName: __ZSt12__relocate_aIPSt10unique_ptrI7NucleusSt14default_deleteIS1_EES5_SaIS4_EET0_T_S8_S7_RT1_, symObjAddr: 0x3518, symBinAddr: 0x1000042A8, symSize: 0x5C }
  - { offsetInCU: 0xF546, offset: 0xF546, size: 0x8, addend: 0x0, symName: __ZN9__gnu_cxx13new_allocatorISt10unique_ptrI7NucleusSt14default_deleteIS2_EEE8allocateEmPKv, symObjAddr: 0x34A0, symBinAddr: 0x100004230, symSize: 0x78 }
  - { offsetInCU: 0xF596, offset: 0xF596, size: 0x8, addend: 0x0, symName: __ZNK9__gnu_cxx13new_allocatorISt10unique_ptrI7NucleusSt14default_deleteIS2_EEE11_M_max_sizeEv, symObjAddr: 0x348C, symBinAddr: 0x10000421C, symSize: 0x14 }
  - { offsetInCU: 0xF5BE, offset: 0xF5BE, size: 0x8, addend: 0x0, symName: __ZNKSt12_Vector_baseISt10unique_ptrI7NucleusSt14default_deleteIS1_EESaIS4_EE19_M_get_Tp_allocatorEv, symObjAddr: 0x3478, symBinAddr: 0x100004208, symSize: 0x14 }
  - { offsetInCU: 0xF5E2, offset: 0xF5E2, size: 0x8, addend: 0x0, symName: __ZNSt6vectorISt10unique_ptrI7NucleusSt14default_deleteIS1_EESaIS4_EE11_S_max_sizeERKS5_, symObjAddr: 0x3440, symBinAddr: 0x1000041D0, symSize: 0x38 }
  - { offsetInCU: 0xF68E, offset: 0xF68E, size: 0x8, addend: 0x0, symName: __ZNSt11_Tuple_implILm1EJSt14default_deleteI7NucleusEEEC2EOS3_, symObjAddr: 0x3428, symBinAddr: 0x1000041B8, symSize: 0x18 }
  - { offsetInCU: 0xF684, offset: 0xF684, size: 0x8, addend: 0x0, symName: __ZSt4moveIRSt5tupleIJP7NucleusSt14default_deleteIS1_EEEEONSt16remove_referenceIT_E4typeEOS8_, symObjAddr: 0x3414, symBinAddr: 0x1000041A4, symSize: 0x14 }
  - { offsetInCU: 0xF6B4, offset: 0xF6B4, size: 0x8, addend: 0x0, symName: __ZNSt11_Tuple_implILm1EJSt14default_deleteI7NucleusEEE7_M_headERS3_, symObjAddr: 0x33F8, symBinAddr: 0x100004188, symSize: 0x1C }
  - { offsetInCU: 0xF6DC, offset: 0xF6DC, size: 0x8, addend: 0x0, symName: __ZNSt10_Head_baseILm0EP7NucleusLb0EE7_M_headERS2_, symObjAddr: 0x33E4, symBinAddr: 0x100004174, symSize: 0x14 }
  - { offsetInCU: 0xF78B, offset: 0xF78B, size: 0x8, addend: 0x0, symName: __ZNSt10_Head_baseILm1ESt14default_deleteI7NucleusELb1EEC2IS0_I13StableNucleusEEEOT_, symObjAddr: 0x33A8, symBinAddr: 0x100004138, symSize: 0x3C }
  - { offsetInCU: 0xF76E, offset: 0xF76E, size: 0x8, addend: 0x0, symName: __ZNSt11_Tuple_implILm1EJSt14default_deleteI13StableNucleusEEE7_M_headERS3_, symObjAddr: 0x338C, symBinAddr: 0x10000411C, symSize: 0x1C }
  - { offsetInCU: 0xF796, offset: 0xF796, size: 0x8, addend: 0x0, symName: __ZNSt10_Head_baseILm0EP13StableNucleusLb0EE7_M_headERS2_, symObjAddr: 0x3378, symBinAddr: 0x100004108, symSize: 0x14 }
  - { offsetInCU: 0xF805, offset: 0xF805, size: 0x8, addend: 0x0, symName: __ZNSt10_Head_baseILm0EP13StableNucleusLb0EEC2Ev, symObjAddr: 0x335C, symBinAddr: 0x1000040EC, symSize: 0x1C }
  - { offsetInCU: 0xF854, offset: 0xF854, size: 0x8, addend: 0x0, symName: __ZNSt11_Tuple_implILm1EJSt14default_deleteI13StableNucleusEEEC2Ev, symObjAddr: 0x333C, symBinAddr: 0x1000040CC, symSize: 0x20 }
  - { offsetInCU: 0xF837, offset: 0xF837, size: 0x8, addend: 0x0, symName: __ZSt12__get_helperILm1ESt14default_deleteI6PhotonEJEERT0_RSt11_Tuple_implIXT_EJS3_DpT1_EE, symObjAddr: 0x3320, symBinAddr: 0x1000040B0, symSize: 0x1C }
  - { offsetInCU: 0xF877, offset: 0xF877, size: 0x8, addend: 0x0, symName: __ZNSt11_Tuple_implILm0EJP6PhotonSt14default_deleteIS0_EEE7_M_headERS4_, symObjAddr: 0x3304, symBinAddr: 0x100004094, symSize: 0x1C }
  - { offsetInCU: 0xF89F, offset: 0xF89F, size: 0x8, addend: 0x0, symName: __ZSt12__get_helperILm0EP8ElectronJSt14default_deleteIS0_EEERKT0_RKSt11_Tuple_implIXT_EJS4_DpT1_EE, symObjAddr: 0x32E8, symBinAddr: 0x100004078, symSize: 0x1C }
  - { offsetInCU: 0xF8E5, offset: 0xF8E5, size: 0x8, addend: 0x0, symName: __ZSt8_DestroyISt10unique_ptrI8ElectronSt14default_deleteIS1_EEEvPT_, symObjAddr: 0x32C8, symBinAddr: 0x100004058, symSize: 0x20 }
  - { offsetInCU: 0xF915, offset: 0xF915, size: 0x8, addend: 0x0, symName: __ZSt11__addressofISt10unique_ptrI8ElectronSt14default_deleteIS1_EEEPT_RS5_, symObjAddr: 0x32B4, symBinAddr: 0x100004044, symSize: 0x14 }
  - { offsetInCU: 0xF949, offset: 0xF949, size: 0x8, addend: 0x0, symName: __ZN9__gnu_cxx13new_allocatorISt10unique_ptrI8ElectronSt14default_deleteIS2_EEE10deallocateEPS5_m, symObjAddr: 0x3284, symBinAddr: 0x100004014, symSize: 0x30 }
  - { offsetInCU: 0xF98B, offset: 0xF98B, size: 0x8, addend: 0x0, symName: __ZSt12__get_helperILm0EP6PhotonJSt14default_deleteIS0_EEERKT0_RKSt11_Tuple_implIXT_EJS4_DpT1_EE, symObjAddr: 0x3268, symBinAddr: 0x100003FF8, symSize: 0x1C }
  - { offsetInCU: 0xF9D5, offset: 0xF9D5, size: 0x8, addend: 0x0, symName: __ZN9__gnu_cxx13new_allocatorISt10unique_ptrI6PhotonSt14default_deleteIS2_EEE7destroyIS5_EEvPT_, symObjAddr: 0x3244, symBinAddr: 0x100003FD4, symSize: 0x24 }
  - { offsetInCU: 0xFA11, offset: 0xFA11, size: 0x8, addend: 0x0, symName: __ZNSt6vectorISt10unique_ptrI6PhotonSt14default_deleteIS1_EESaIS4_EE14_S_do_relocateEPS4_S7_S7_RS5_St17integral_constantIbLb1EE, symObjAddr: 0x320C, symBinAddr: 0x100003F9C, symSize: 0x38 }
  - { offsetInCU: 0xFA72, offset: 0xFA72, size: 0x8, addend: 0x0, symName: __ZNSt16allocator_traitsISaISt10unique_ptrI6PhotonSt14default_deleteIS1_EEEE8allocateERS5_m, symObjAddr: 0x31E4, symBinAddr: 0x100003F74, symSize: 0x28 }
  - { offsetInCU: 0xFAAE, offset: 0xFAAE, size: 0x8, addend: 0x0, symName: __ZNKSt6vectorISt10unique_ptrI6PhotonSt14default_deleteIS1_EESaIS4_EE4sizeEv, symObjAddr: 0x31BC, symBinAddr: 0x100003F4C, symSize: 0x28 }
  - { offsetInCU: 0xFAD6, offset: 0xFAD6, size: 0x8, addend: 0x0, symName: __ZNKSt6vectorISt10unique_ptrI6PhotonSt14default_deleteIS1_EESaIS4_EE8max_sizeEv, symObjAddr: 0x319C, symBinAddr: 0x100003F2C, symSize: 0x20 }
  - { offsetInCU: 0xFB5D, offset: 0xFB5D, size: 0x8, addend: 0x0, symName: __ZNSt15__uniq_ptr_implI6PhotonSt14default_deleteIS0_EEC2EOS3_, symObjAddr: 0x3154, symBinAddr: 0x100003EE4, symSize: 0x48 }
  - { offsetInCU: 0xFBA0, offset: 0xFBA0, size: 0x8, addend: 0x0, symName: __ZNSt5tupleIJP6PhotonSt14default_deleteIS0_EEEC1EOS4_, symObjAddr: 0x312C, symBinAddr: 0x100003EBC, symSize: 0x28 }
  - { offsetInCU: 0xFBF6, offset: 0xFBF6, size: 0x8, addend: 0x0, symName: __ZNSt11_Tuple_implILm0EJP6PhotonSt14default_deleteIS0_EEEC2EOS4_, symObjAddr: 0x30F4, symBinAddr: 0x100003E84, symSize: 0x38 }
  - { offsetInCU: 0xFBE3, offset: 0xFBE3, size: 0x8, addend: 0x0, symName: __ZSt12__get_helperILm0EP7NucleusJSt14default_deleteIS0_EEERKT0_RKSt11_Tuple_implIXT_EJS4_DpT1_EE, symObjAddr: 0x30D8, symBinAddr: 0x100003E68, symSize: 0x1C }
  - { offsetInCU: 0xFC29, offset: 0xFC29, size: 0x8, addend: 0x0, symName: __ZSt8_DestroyISt10unique_ptrI6PhotonSt14default_deleteIS1_EEEvPT_, symObjAddr: 0x30B8, symBinAddr: 0x100003E48, symSize: 0x20 }
  - { offsetInCU: 0xFC59, offset: 0xFC59, size: 0x8, addend: 0x0, symName: __ZSt11__addressofISt10unique_ptrI6PhotonSt14default_deleteIS1_EEEPT_RS5_, symObjAddr: 0x30A4, symBinAddr: 0x100003E34, symSize: 0x14 }
  - { offsetInCU: 0xFD10, offset: 0xFD10, size: 0x8, addend: 0x0, symName: __ZNSt11_Tuple_implILm1EJSt14default_deleteI7NucleusEEEC2IS0_I18RadioactiveNucleusEEEOT_, symObjAddr: 0x3074, symBinAddr: 0x100003E04, symSize: 0x30 }
  - { offsetInCU: 0xFCEF, offset: 0xFCEF, size: 0x8, addend: 0x0, symName: __ZSt12__get_helperILm1ESt14default_deleteI18RadioactiveNucleusEJEERT0_RSt11_Tuple_implIXT_EJS3_DpT1_EE, symObjAddr: 0x3058, symBinAddr: 0x100003DE8, symSize: 0x1C }
  - { offsetInCU: 0xFD2F, offset: 0xFD2F, size: 0x8, addend: 0x0, symName: __ZNSt11_Tuple_implILm0EJP18RadioactiveNucleusSt14default_deleteIS0_EEE7_M_headERS4_, symObjAddr: 0x303C, symBinAddr: 0x100003DCC, symSize: 0x1C }
  - { offsetInCU: 0xFDBA, offset: 0xFDBA, size: 0x8, addend: 0x0, symName: __ZNSt11_Tuple_implILm0EJP18RadioactiveNucleusSt14default_deleteIS0_EEEC2Ev, symObjAddr: 0x3014, symBinAddr: 0x100003DA4, symSize: 0x28 }
  - { offsetInCU: 0xFD98, offset: 0xFD98, size: 0x8, addend: 0x0, symName: __ZN9__gnu_cxx13new_allocatorISt10unique_ptrI7NucleusSt14default_deleteIS2_EEE7destroyIS5_EEvPT_, symObjAddr: 0x2FF0, symBinAddr: 0x100003D80, symSize: 0x24 }
  - { offsetInCU: 0xFDD4, offset: 0xFDD4, size: 0x8, addend: 0x0, symName: __ZNSt6vectorISt10unique_ptrI7NucleusSt14default_deleteIS1_EESaIS4_EE14_S_do_relocateEPS4_S7_S7_RS5_St17integral_constantIbLb1EE, symObjAddr: 0x2FB8, symBinAddr: 0x100003D48, symSize: 0x38 }
  - { offsetInCU: 0xFE35, offset: 0xFE35, size: 0x8, addend: 0x0, symName: __ZNSt16allocator_traitsISaISt10unique_ptrI7NucleusSt14default_deleteIS1_EEEE8allocateERS5_m, symObjAddr: 0x2F90, symBinAddr: 0x100003D20, symSize: 0x28 }
  - { offsetInCU: 0xFE6D, offset: 0xFE6D, size: 0x8, addend: 0x0, symName: __ZSt3maxImERKT_S2_S2_, symObjAddr: 0x2F58, symBinAddr: 0x100003CE8, symSize: 0x38 }
  - { offsetInCU: 0xFEB0, offset: 0xFEB0, size: 0x8, addend: 0x0, symName: __ZNKSt6vectorISt10unique_ptrI7NucleusSt14default_deleteIS1_EESaIS4_EE8max_sizeEv, symObjAddr: 0x2F38, symBinAddr: 0x100003CC8, symSize: 0x20 }
  - { offsetInCU: 0xFF38, offset: 0xFF38, size: 0x8, addend: 0x0, symName: __ZNSt15__uniq_ptr_implI7NucleusSt14default_deleteIS0_EEC2EOS3_, symObjAddr: 0x2EF0, symBinAddr: 0x100003C80, symSize: 0x48 }
  - { offsetInCU: 0xFF7B, offset: 0xFF7B, size: 0x8, addend: 0x0, symName: __ZNSt5tupleIJP7NucleusSt14default_deleteIS0_EEEC1EOS4_, symObjAddr: 0x2EC8, symBinAddr: 0x100003C58, symSize: 0x28 }
  - { offsetInCU: 0xFFD1, offset: 0xFFD1, size: 0x8, addend: 0x0, symName: __ZNSt11_Tuple_implILm0EJP7NucleusSt14default_deleteIS0_EEEC2EOS4_, symObjAddr: 0x2E90, symBinAddr: 0x100003C20, symSize: 0x38 }
  - { offsetInCU: 0xFFBD, offset: 0xFFBD, size: 0x8, addend: 0x0, symName: __ZSt12__get_helperILm1ESt14default_deleteI7NucleusEJEERT0_RSt11_Tuple_implIXT_EJS3_DpT1_EE, symObjAddr: 0x2E74, symBinAddr: 0x100003C04, symSize: 0x1C }
  - { offsetInCU: 0xFFFD, offset: 0xFFFD, size: 0x8, addend: 0x0, symName: __ZNSt11_Tuple_implILm0EJP7NucleusSt14default_deleteIS0_EEE7_M_headERS4_, symObjAddr: 0x2E58, symBinAddr: 0x100003BE8, symSize: 0x1C }
  - { offsetInCU: 0x10084, offset: 0x10084, size: 0x8, addend: 0x0, symName: __ZNSt10_Head_baseILm0EP7NucleusLb0EEC2IRS1_EEOT_, symObjAddr: 0x2E28, symBinAddr: 0x100003BB8, symSize: 0x30 }
  - { offsetInCU: 0x1010C, offset: 0x1010C, size: 0x8, addend: 0x0, symName: __ZNSt11_Tuple_implILm1EJSt14default_deleteI7NucleusEEEC2IS0_I13StableNucleusEEEOT_, symObjAddr: 0x2DF8, symBinAddr: 0x100003B88, symSize: 0x30 }
  - { offsetInCU: 0x100F0, offset: 0x100F0, size: 0x8, addend: 0x0, symName: __ZSt12__get_helperILm1ESt14default_deleteI13StableNucleusEJEERT0_RSt11_Tuple_implIXT_EJS3_DpT1_EE, symObjAddr: 0x2DDC, symBinAddr: 0x100003B6C, symSize: 0x1C }
  - { offsetInCU: 0x10130, offset: 0x10130, size: 0x8, addend: 0x0, symName: __ZNSt11_Tuple_implILm0EJP13StableNucleusSt14default_deleteIS0_EEE7_M_headERS4_, symObjAddr: 0x2DC0, symBinAddr: 0x100003B50, symSize: 0x1C }
  - { offsetInCU: 0x101B6, offset: 0x101B6, size: 0x8, addend: 0x0, symName: __ZNSt11_Tuple_implILm0EJP13StableNucleusSt14default_deleteIS0_EEEC2Ev, symObjAddr: 0x2D98, symBinAddr: 0x100003B28, symSize: 0x28 }
  - { offsetInCU: 0x10195, offset: 0x10195, size: 0x8, addend: 0x0, symName: __ZSt8_DestroyISt10unique_ptrI7NucleusSt14default_deleteIS1_EEEvPT_, symObjAddr: 0x2D78, symBinAddr: 0x100003B08, symSize: 0x20 }
  - { offsetInCU: 0x101C5, offset: 0x101C5, size: 0x8, addend: 0x0, symName: __ZSt11__addressofISt10unique_ptrI7NucleusSt14default_deleteIS1_EEEPT_RS5_, symObjAddr: 0x2D64, symBinAddr: 0x100003AF4, symSize: 0x14 }
  - { offsetInCU: 0x101FB, offset: 0x101FB, size: 0x8, addend: 0x0, symName: __ZSt3getILm1EJP6PhotonSt14default_deleteIS0_EEERNSt13tuple_elementIXT_ESt5tupleIJDpT0_EEE4typeERS8_, symObjAddr: 0x2D48, symBinAddr: 0x100003AD8, symSize: 0x1C }
  - { offsetInCU: 0x1023D, offset: 0x1023D, size: 0x8, addend: 0x0, symName: __ZSt12__get_helperILm0EP6PhotonJSt14default_deleteIS0_EEERT0_RSt11_Tuple_implIXT_EJS4_DpT1_EE, symObjAddr: 0x2D2C, symBinAddr: 0x100003ABC, symSize: 0x1C }
  - { offsetInCU: 0x10289, offset: 0x10289, size: 0x8, addend: 0x0, symName: __ZSt3getILm0EJP8ElectronSt14default_deleteIS0_EEERKNSt13tuple_elementIXT_ESt5tupleIJDpT0_EEE4typeERKS8_, symObjAddr: 0x2D10, symBinAddr: 0x100003AA0, symSize: 0x1C }
  - { offsetInCU: 0x102CB, offset: 0x102CB, size: 0x8, addend: 0x0, symName: __ZNSt12_Destroy_auxILb0EE9__destroyIPSt10unique_ptrI8ElectronSt14default_deleteIS3_EEEEvT_S8_, symObjAddr: 0x2CC4, symBinAddr: 0x100003A54, symSize: 0x4C }
  - { offsetInCU: 0x1030A, offset: 0x1030A, size: 0x8, addend: 0x0, symName: __ZNSt16allocator_traitsISaISt10unique_ptrI8ElectronSt14default_deleteIS1_EEEE10deallocateERS5_PS4_m, symObjAddr: 0x2C94, symBinAddr: 0x100003A24, symSize: 0x30 }
  - { offsetInCU: 0x103C6, offset: 0x103C6, size: 0x8, addend: 0x0, symName: __ZN9__gnu_cxx13new_allocatorISt10unique_ptrI8ElectronSt14default_deleteIS2_EEED2Ev, symObjAddr: 0x2C80, symBinAddr: 0x100003A10, symSize: 0x14 }
  - { offsetInCU: 0x1039E, offset: 0x1039E, size: 0x8, addend: 0x0, symName: __ZSt3getILm0EJP6PhotonSt14default_deleteIS0_EEERKNSt13tuple_elementIXT_ESt5tupleIJDpT0_EEE4typeERKS8_, symObjAddr: 0x2C64, symBinAddr: 0x1000039F4, symSize: 0x1C }
  - { offsetInCU: 0x103E4, offset: 0x103E4, size: 0x8, addend: 0x0, symName: __ZNK9__gnu_cxx17__normal_iteratorIPSt10unique_ptrI6PhotonSt14default_deleteIS2_EESt6vectorIS5_SaIS5_EEEmiEl, symObjAddr: 0x2C20, symBinAddr: 0x1000039B0, symSize: 0x44 }
  - { offsetInCU: 0x10418, offset: 0x10418, size: 0x8, addend: 0x0, symName: __ZNSt16allocator_traitsISaISt10unique_ptrI6PhotonSt14default_deleteIS1_EEEE7destroyIS4_EEvRS5_PT_, symObjAddr: 0x2BF8, symBinAddr: 0x100003988, symSize: 0x28 }
  - { offsetInCU: 0x10459, offset: 0x10459, size: 0x8, addend: 0x0, symName: __ZNSt6vectorISt10unique_ptrI6PhotonSt14default_deleteIS1_EESaIS4_EE11_S_relocateEPS4_S7_S7_RS5_, symObjAddr: 0x2BC4, symBinAddr: 0x100003954, symSize: 0x34 }
  - { offsetInCU: 0x104B5, offset: 0x104B5, size: 0x8, addend: 0x0, symName: __ZNSt12_Vector_baseISt10unique_ptrI6PhotonSt14default_deleteIS1_EESaIS4_EE11_M_allocateEm, symObjAddr: 0x2B8C, symBinAddr: 0x10000391C, symSize: 0x38 }
  - { offsetInCU: 0x104EF, offset: 0x104EF, size: 0x8, addend: 0x0, symName: __ZN9__gnu_cxxmiIPSt10unique_ptrI6PhotonSt14default_deleteIS2_EESt6vectorIS5_SaIS5_EEEENS_17__normal_iteratorIT_T0_E15difference_typeERKSD_SG_, symObjAddr: 0x2B4C, symBinAddr: 0x1000038DC, symSize: 0x40 }
  - { offsetInCU: 0x1053D, offset: 0x1053D, size: 0x8, addend: 0x0, symName: __ZNKSt6vectorISt10unique_ptrI6PhotonSt14default_deleteIS1_EESaIS4_EE12_M_check_lenEmPKc, symObjAddr: 0x2A80, symBinAddr: 0x100003810, symSize: 0xCC }
  - { offsetInCU: 0x10595, offset: 0x10595, size: 0x8, addend: 0x0, symName: __ZN9__gnu_cxx13new_allocatorISt10unique_ptrI6PhotonSt14default_deleteIS2_EEE9constructIS5_JS5_EEEvPT_DpOT0_, symObjAddr: 0x2A34, symBinAddr: 0x1000037C4, symSize: 0x4C }
  - { offsetInCU: 0x10641, offset: 0x10641, size: 0x8, addend: 0x0, symName: __ZNSt10unique_ptrI6PhotonSt14default_deleteIS0_EEC1EOS3_, symObjAddr: 0x2A0C, symBinAddr: 0x10000379C, symSize: 0x28 }
  - { offsetInCU: 0x10699, offset: 0x10699, size: 0x8, addend: 0x0, symName: __ZNSt15__uniq_ptr_dataI6PhotonSt14default_deleteIS0_ELb1ELb1EEC1EOS3_, symObjAddr: 0x29E4, symBinAddr: 0x100003774, symSize: 0x28 }
  - { offsetInCU: 0x10687, offset: 0x10687, size: 0x8, addend: 0x0, symName: __ZSt3getILm0EJP7NucleusSt14default_deleteIS0_EEERKNSt13tuple_elementIXT_ESt5tupleIJDpT0_EEE4typeERKS8_, symObjAddr: 0x29C8, symBinAddr: 0x100003758, symSize: 0x1C }
  - { offsetInCU: 0x106C9, offset: 0x106C9, size: 0x8, addend: 0x0, symName: __ZNSt12_Destroy_auxILb0EE9__destroyIPSt10unique_ptrI6PhotonSt14default_deleteIS3_EEEEvT_S8_, symObjAddr: 0x297C, symBinAddr: 0x10000370C, symSize: 0x4C }
  - { offsetInCU: 0x1070C, offset: 0x1070C, size: 0x8, addend: 0x0, symName: __ZN9__gnu_cxx13new_allocatorISt10unique_ptrI6PhotonSt14default_deleteIS2_EEE10deallocateEPS5_m, symObjAddr: 0x294C, symBinAddr: 0x1000036DC, symSize: 0x30 }
  - { offsetInCU: 0x107FD, offset: 0x107FD, size: 0x8, addend: 0x0, symName: __ZNSt11_Tuple_implILm0EJP7NucleusSt14default_deleteIS0_EEEC2IRS1_JS2_I18RadioactiveNucleusEEvEEOT_DpOT0_, symObjAddr: 0x28F8, symBinAddr: 0x100003688, symSize: 0x54 }
  - { offsetInCU: 0x107EC, offset: 0x107EC, size: 0x8, addend: 0x0, symName: __ZSt3getILm1EJP18RadioactiveNucleusSt14default_deleteIS0_EEERNSt13tuple_elementIXT_ESt5tupleIJDpT0_EEE4typeERS8_, symObjAddr: 0x28DC, symBinAddr: 0x10000366C, symSize: 0x1C }
  - { offsetInCU: 0x1082E, offset: 0x1082E, size: 0x8, addend: 0x0, symName: __ZSt12__get_helperILm0EP18RadioactiveNucleusJSt14default_deleteIS0_EEERT0_RSt11_Tuple_implIXT_EJS4_DpT1_EE, symObjAddr: 0x28C0, symBinAddr: 0x100003650, symSize: 0x1C }
  - { offsetInCU: 0x108E0, offset: 0x108E0, size: 0x8, addend: 0x0, symName: __ZNSt5tupleIJP18RadioactiveNucleusSt14default_deleteIS0_EEEC1ILb1ELb1EEEv, symObjAddr: 0x28A0, symBinAddr: 0x100003630, symSize: 0x20 }
  - { offsetInCU: 0x108C9, offset: 0x108C9, size: 0x8, addend: 0x0, symName: __ZNK9__gnu_cxx17__normal_iteratorIPSt10unique_ptrI7NucleusSt14default_deleteIS2_EESt6vectorIS5_SaIS5_EEEdeEv, symObjAddr: 0x2888, symBinAddr: 0x100003618, symSize: 0x18 }
  - { offsetInCU: 0x108F1, offset: 0x108F1, size: 0x8, addend: 0x0, symName: __ZNK9__gnu_cxx17__normal_iteratorIPSt10unique_ptrI7NucleusSt14default_deleteIS2_EESt6vectorIS5_SaIS5_EEEmiEl, symObjAddr: 0x2844, symBinAddr: 0x1000035D4, symSize: 0x44 }
  - { offsetInCU: 0x10925, offset: 0x10925, size: 0x8, addend: 0x0, symName: __ZNSt16allocator_traitsISaISt10unique_ptrI7NucleusSt14default_deleteIS1_EEEE7destroyIS4_EEvRS5_PT_, symObjAddr: 0x281C, symBinAddr: 0x1000035AC, symSize: 0x28 }
  - { offsetInCU: 0x1096A, offset: 0x1096A, size: 0x8, addend: 0x0, symName: __ZNK9__gnu_cxx17__normal_iteratorIPSt10unique_ptrI7NucleusSt14default_deleteIS2_EESt6vectorIS5_SaIS5_EEE4baseEv, symObjAddr: 0x2808, symBinAddr: 0x100003598, symSize: 0x14 }
  - { offsetInCU: 0x1098E, offset: 0x1098E, size: 0x8, addend: 0x0, symName: __ZNSt6vectorISt10unique_ptrI7NucleusSt14default_deleteIS1_EESaIS4_EE11_S_relocateEPS4_S7_S7_RS5_, symObjAddr: 0x27D4, symBinAddr: 0x100003564, symSize: 0x34 }
  - { offsetInCU: 0x109EA, offset: 0x109EA, size: 0x8, addend: 0x0, symName: __ZNSt12_Vector_baseISt10unique_ptrI7NucleusSt14default_deleteIS1_EESaIS4_EE11_M_allocateEm, symObjAddr: 0x279C, symBinAddr: 0x10000352C, symSize: 0x38 }
  - { offsetInCU: 0x10A24, offset: 0x10A24, size: 0x8, addend: 0x0, symName: __ZN9__gnu_cxxmiIPSt10unique_ptrI7NucleusSt14default_deleteIS2_EESt6vectorIS5_SaIS5_EEEENS_17__normal_iteratorIT_T0_E15difference_typeERKSD_SG_, symObjAddr: 0x275C, symBinAddr: 0x1000034EC, symSize: 0x40 }
  - { offsetInCU: 0x10A72, offset: 0x10A72, size: 0x8, addend: 0x0, symName: __ZNSt6vectorISt10unique_ptrI7NucleusSt14default_deleteIS1_EESaIS4_EE5beginEv, symObjAddr: 0x2738, symBinAddr: 0x1000034C8, symSize: 0x24 }
  - { offsetInCU: 0x10A9A, offset: 0x10A9A, size: 0x8, addend: 0x0, symName: __ZNKSt6vectorISt10unique_ptrI7NucleusSt14default_deleteIS1_EESaIS4_EE12_M_check_lenEmPKc, symObjAddr: 0x266C, symBinAddr: 0x1000033FC, symSize: 0xCC }
  - { offsetInCU: 0x10B84, offset: 0x10B84, size: 0x8, addend: 0x0, symName: __ZN9__gnu_cxx17__normal_iteratorIPSt10unique_ptrI7NucleusSt14default_deleteIS2_EESt6vectorIS5_SaIS5_EEEC1ERKS6_, symObjAddr: 0x2644, symBinAddr: 0x1000033D4, symSize: 0x28 }
  - { offsetInCU: 0x10B46, offset: 0x10B46, size: 0x8, addend: 0x0, symName: __ZN9__gnu_cxx13new_allocatorISt10unique_ptrI7NucleusSt14default_deleteIS2_EEE9constructIS5_JS5_EEEvPT_DpOT0_, symObjAddr: 0x25F8, symBinAddr: 0x100003388, symSize: 0x4C }
  - { offsetInCU: 0x10BF3, offset: 0x10BF3, size: 0x8, addend: 0x0, symName: __ZNSt10unique_ptrI7NucleusSt14default_deleteIS0_EEC1EOS3_, symObjAddr: 0x25D0, symBinAddr: 0x100003360, symSize: 0x28 }
  - { offsetInCU: 0x10C4B, offset: 0x10C4B, size: 0x8, addend: 0x0, symName: __ZNSt15__uniq_ptr_dataI7NucleusSt14default_deleteIS0_ELb1ELb1EEC1EOS3_, symObjAddr: 0x25A8, symBinAddr: 0x100003338, symSize: 0x28 }
  - { offsetInCU: 0x10C38, offset: 0x10C38, size: 0x8, addend: 0x0, symName: __ZSt3getILm1EJP7NucleusSt14default_deleteIS0_EEERNSt13tuple_elementIXT_ESt5tupleIJDpT0_EEE4typeERS8_, symObjAddr: 0x258C, symBinAddr: 0x10000331C, symSize: 0x1C }
  - { offsetInCU: 0x10C7A, offset: 0x10C7A, size: 0x8, addend: 0x0, symName: __ZSt12__get_helperILm0EP7NucleusJSt14default_deleteIS0_EEERT0_RSt11_Tuple_implIXT_EJS4_DpT1_EE, symObjAddr: 0x2570, symBinAddr: 0x100003300, symSize: 0x1C }
  - { offsetInCU: 0x10D6A, offset: 0x10D6A, size: 0x8, addend: 0x0, symName: __ZNSt11_Tuple_implILm0EJP7NucleusSt14default_deleteIS0_EEEC2IRS1_JS2_I13StableNucleusEEvEEOT_DpOT0_, symObjAddr: 0x251C, symBinAddr: 0x1000032AC, symSize: 0x54 }
  - { offsetInCU: 0x10D5E, offset: 0x10D5E, size: 0x8, addend: 0x0, symName: __ZSt7forwardIRP7NucleusEOT_RNSt16remove_referenceIS3_E4typeE, symObjAddr: 0x2508, symBinAddr: 0x100003298, symSize: 0x14 }
  - { offsetInCU: 0x10D94, offset: 0x10D94, size: 0x8, addend: 0x0, symName: __ZSt3getILm1EJP13StableNucleusSt14default_deleteIS0_EEERNSt13tuple_elementIXT_ESt5tupleIJDpT0_EEE4typeERS8_, symObjAddr: 0x24EC, symBinAddr: 0x10000327C, symSize: 0x1C }
  - { offsetInCU: 0x10DD6, offset: 0x10DD6, size: 0x8, addend: 0x0, symName: __ZSt12__get_helperILm0EP13StableNucleusJSt14default_deleteIS0_EEERT0_RSt11_Tuple_implIXT_EJS4_DpT1_EE, symObjAddr: 0x24D0, symBinAddr: 0x100003260, symSize: 0x1C }
  - { offsetInCU: 0x10E83, offset: 0x10E83, size: 0x8, addend: 0x0, symName: __ZNSt5tupleIJP13StableNucleusSt14default_deleteIS0_EEEC1ILb1ELb1EEEv, symObjAddr: 0x24B0, symBinAddr: 0x100003240, symSize: 0x20 }
  - { offsetInCU: 0x10E6D, offset: 0x10E6D, size: 0x8, addend: 0x0, symName: __ZSt10__distanceIPKcENSt15iterator_traitsIT_E15difference_typeES3_S3_St26random_access_iterator_tag, symObjAddr: 0x248C, symBinAddr: 0x10000321C, symSize: 0x24 }
  - { offsetInCU: 0x10EB5, offset: 0x10EB5, size: 0x8, addend: 0x0, symName: __ZSt19__iterator_categoryIPKcENSt15iterator_traitsIT_E17iterator_categoryERKS3_, symObjAddr: 0x2478, symBinAddr: 0x100003208, symSize: 0x14 }
  - { offsetInCU: 0x10EDF, offset: 0x10EDF, size: 0x8, addend: 0x0, symName: __ZN9__gnu_cxx17__is_null_pointerIKcEEbPT_, symObjAddr: 0x2458, symBinAddr: 0x1000031E8, symSize: 0x20 }
  - { offsetInCU: 0x10F0F, offset: 0x10F0F, size: 0x8, addend: 0x0, symName: __ZNSt12_Destroy_auxILb0EE9__destroyIPSt10unique_ptrI7NucleusSt14default_deleteIS3_EEEEvT_S8_, symObjAddr: 0x240C, symBinAddr: 0x10000319C, symSize: 0x4C }
  - { offsetInCU: 0x10F52, offset: 0x10F52, size: 0x8, addend: 0x0, symName: __ZN9__gnu_cxx13new_allocatorISt10unique_ptrI7NucleusSt14default_deleteIS2_EEE10deallocateEPS5_m, symObjAddr: 0x23DC, symBinAddr: 0x10000316C, symSize: 0x30 }
  - { offsetInCU: 0x10F98, offset: 0x10F98, size: 0x8, addend: 0x0, symName: __ZNSt15__uniq_ptr_implI6PhotonSt14default_deleteIS0_EE10_M_deleterEv, symObjAddr: 0x23C0, symBinAddr: 0x100003150, symSize: 0x1C }
  - { offsetInCU: 0x10FC2, offset: 0x10FC2, size: 0x8, addend: 0x0, symName: __ZSt3getILm0EJP6PhotonSt14default_deleteIS0_EEERNSt13tuple_elementIXT_ESt5tupleIJDpT0_EEE4typeERS8_, symObjAddr: 0x23A4, symBinAddr: 0x100003134, symSize: 0x1C }
  - { offsetInCU: 0x11008, offset: 0x11008, size: 0x8, addend: 0x0, symName: __ZNKSt15__uniq_ptr_implI8ElectronSt14default_deleteIS0_EE6_M_ptrEv, symObjAddr: 0x2384, symBinAddr: 0x100003114, symSize: 0x20 }
  - { offsetInCU: 0x1102C, offset: 0x1102C, size: 0x8, addend: 0x0, symName: __ZSt8_DestroyIPSt10unique_ptrI8ElectronSt14default_deleteIS1_EEEvT_S6_, symObjAddr: 0x235C, symBinAddr: 0x1000030EC, symSize: 0x28 }
  - { offsetInCU: 0x1106F, offset: 0x1106F, size: 0x8, addend: 0x0, symName: __ZNSt12_Vector_baseISt10unique_ptrI8ElectronSt14default_deleteIS1_EESaIS4_EE13_M_deallocateEPS4_m, symObjAddr: 0x2320, symBinAddr: 0x1000030B0, symSize: 0x3C }
  - { offsetInCU: 0x11110, offset: 0x11110, size: 0x8, addend: 0x0, symName: __ZNSaISt10unique_ptrI8ElectronSt14default_deleteIS0_EEED2Ev, symObjAddr: 0x2300, symBinAddr: 0x100003090, symSize: 0x20 }
  - { offsetInCU: 0x110FD, offset: 0x110FD, size: 0x8, addend: 0x0, symName: __ZNKSt15__uniq_ptr_implI6PhotonSt14default_deleteIS0_EE6_M_ptrEv, symObjAddr: 0x22E0, symBinAddr: 0x100003070, symSize: 0x20 }
  - { offsetInCU: 0x11125, offset: 0x11125, size: 0x8, addend: 0x0, symName: __ZNSt6vectorISt10unique_ptrI6PhotonSt14default_deleteIS1_EESaIS4_EE4backEv, symObjAddr: 0x22A8, symBinAddr: 0x100003038, symSize: 0x38 }
  - { offsetInCU: 0x1114D, offset: 0x1114D, size: 0x8, addend: 0x0, symName: __ZNSt6vectorISt10unique_ptrI6PhotonSt14default_deleteIS1_EESaIS4_EE17_M_realloc_insertIJS4_EEEvN9__gnu_cxx17__normal_iteratorIPS4_S6_EEDpOT_, symObjAddr: 0x2130, symBinAddr: 0x100002EC0, symSize: 0x178 }
  - { offsetInCU: 0x111FF, offset: 0x111FF, size: 0x8, addend: 0x0, symName: __ZNSt16allocator_traitsISaISt10unique_ptrI6PhotonSt14default_deleteIS1_EEEE9constructIS4_JS4_EEEvRS5_PT_DpOT0_, symObjAddr: 0x20F8, symBinAddr: 0x100002E88, symSize: 0x38 }
  - { offsetInCU: 0x11261, offset: 0x11261, size: 0x8, addend: 0x0, symName: __ZSt7forwardISt10unique_ptrI6PhotonSt14default_deleteIS1_EEEOT_RNSt16remove_referenceIS5_E4typeE, symObjAddr: 0x20E4, symBinAddr: 0x100002E74, symSize: 0x14 }
  - { offsetInCU: 0x11295, offset: 0x11295, size: 0x8, addend: 0x0, symName: __ZNKSt15__uniq_ptr_implI7NucleusSt14default_deleteIS0_EE6_M_ptrEv, symObjAddr: 0x20C4, symBinAddr: 0x100002E54, symSize: 0x20 }
  - { offsetInCU: 0x112B9, offset: 0x112B9, size: 0x8, addend: 0x0, symName: __ZSt8_DestroyIPSt10unique_ptrI6PhotonSt14default_deleteIS1_EEEvT_S6_, symObjAddr: 0x209C, symBinAddr: 0x100002E2C, symSize: 0x28 }
  - { offsetInCU: 0x112F8, offset: 0x112F8, size: 0x8, addend: 0x0, symName: __ZNSt16allocator_traitsISaISt10unique_ptrI6PhotonSt14default_deleteIS1_EEEE10deallocateERS5_PS4_m, symObjAddr: 0x206C, symBinAddr: 0x100002DFC, symSize: 0x30 }
  - { offsetInCU: 0x113A9, offset: 0x113A9, size: 0x8, addend: 0x0, symName: __ZN9__gnu_cxx13new_allocatorISt10unique_ptrI6PhotonSt14default_deleteIS2_EEEC2Ev, symObjAddr: 0x2058, symBinAddr: 0x100002DE8, symSize: 0x14 }
  - { offsetInCU: 0x11420, offset: 0x11420, size: 0x8, addend: 0x0, symName: __ZNSt5tupleIJP7NucleusSt14default_deleteIS0_EEEC1IRS1_S2_I18RadioactiveNucleusELb1EEEOT_OT0_, symObjAddr: 0x2008, symBinAddr: 0x100002D98, symSize: 0x50 }
  - { offsetInCU: 0x11410, offset: 0x11410, size: 0x8, addend: 0x0, symName: __ZNSt15__uniq_ptr_implI18RadioactiveNucleusSt14default_deleteIS0_EE7releaseEv, symObjAddr: 0x1FD4, symBinAddr: 0x100002D64, symSize: 0x34 }
  - { offsetInCU: 0x11447, offset: 0x11447, size: 0x8, addend: 0x0, symName: __ZNSt15__uniq_ptr_implI18RadioactiveNucleusSt14default_deleteIS0_EE10_M_deleterEv, symObjAddr: 0x1FB8, symBinAddr: 0x100002D48, symSize: 0x1C }
  - { offsetInCU: 0x11471, offset: 0x11471, size: 0x8, addend: 0x0, symName: __ZSt3getILm0EJP18RadioactiveNucleusSt14default_deleteIS0_EEERNSt13tuple_elementIXT_ESt5tupleIJDpT0_EEE4typeERS8_, symObjAddr: 0x1F9C, symBinAddr: 0x100002D2C, symSize: 0x1C }
  - { offsetInCU: 0x11523, offset: 0x11523, size: 0x8, addend: 0x0, symName: __ZNSt15__uniq_ptr_implI18RadioactiveNucleusSt14default_deleteIS0_EEC2EPS0_, symObjAddr: 0x1F60, symBinAddr: 0x100002CF0, symSize: 0x3C }
  - { offsetInCU: 0x1150A, offset: 0x1150A, size: 0x8, addend: 0x0, symName: __ZNSt6vectorISt10unique_ptrI7NucleusSt14default_deleteIS1_EESaIS4_EE4backEv, symObjAddr: 0x1F28, symBinAddr: 0x100002CB8, symSize: 0x38 }
  - { offsetInCU: 0x11532, offset: 0x11532, size: 0x8, addend: 0x0, symName: __ZNSt6vectorISt10unique_ptrI7NucleusSt14default_deleteIS1_EESaIS4_EE17_M_realloc_insertIJS4_EEEvN9__gnu_cxx17__normal_iteratorIPS4_S6_EEDpOT_, symObjAddr: 0x1DB0, symBinAddr: 0x100002B40, symSize: 0x178 }
  - { offsetInCU: 0x115E8, offset: 0x115E8, size: 0x8, addend: 0x0, symName: __ZNSt6vectorISt10unique_ptrI7NucleusSt14default_deleteIS1_EESaIS4_EE3endEv, symObjAddr: 0x1D88, symBinAddr: 0x100002B18, symSize: 0x28 }
  - { offsetInCU: 0x1160C, offset: 0x1160C, size: 0x8, addend: 0x0, symName: __ZNSt16allocator_traitsISaISt10unique_ptrI7NucleusSt14default_deleteIS1_EEEE9constructIS4_JS4_EEEvRS5_PT_DpOT0_, symObjAddr: 0x1D50, symBinAddr: 0x100002AE0, symSize: 0x38 }
  - { offsetInCU: 0x1166E, offset: 0x1166E, size: 0x8, addend: 0x0, symName: __ZSt7forwardISt10unique_ptrI7NucleusSt14default_deleteIS1_EEEOT_RNSt16remove_referenceIS5_E4typeE, symObjAddr: 0x1D3C, symBinAddr: 0x100002ACC, symSize: 0x14 }
  - { offsetInCU: 0x116A2, offset: 0x116A2, size: 0x8, addend: 0x0, symName: __ZNSt15__uniq_ptr_implI7NucleusSt14default_deleteIS0_EE10_M_deleterEv, symObjAddr: 0x1D20, symBinAddr: 0x100002AB0, symSize: 0x1C }
  - { offsetInCU: 0x116CC, offset: 0x116CC, size: 0x8, addend: 0x0, symName: __ZSt3getILm0EJP7NucleusSt14default_deleteIS0_EEERNSt13tuple_elementIXT_ESt5tupleIJDpT0_EEE4typeERS8_, symObjAddr: 0x1D04, symBinAddr: 0x100002A94, symSize: 0x1C }
  - { offsetInCU: 0x117AC, offset: 0x117AC, size: 0x8, addend: 0x0, symName: __ZNSt5tupleIJP7NucleusSt14default_deleteIS0_EEEC1IRS1_S2_I13StableNucleusELb1EEEOT_OT0_, symObjAddr: 0x1CB4, symBinAddr: 0x100002A44, symSize: 0x50 }
  - { offsetInCU: 0x117A1, offset: 0x117A1, size: 0x8, addend: 0x0, symName: __ZNSt15__uniq_ptr_implI13StableNucleusSt14default_deleteIS0_EE7releaseEv, symObjAddr: 0x1C80, symBinAddr: 0x100002A10, symSize: 0x34 }
  - { offsetInCU: 0x117D8, offset: 0x117D8, size: 0x8, addend: 0x0, symName: __ZNSt15__uniq_ptr_implI13StableNucleusSt14default_deleteIS0_EE10_M_deleterEv, symObjAddr: 0x1C64, symBinAddr: 0x1000029F4, symSize: 0x1C }
  - { offsetInCU: 0x11802, offset: 0x11802, size: 0x8, addend: 0x0, symName: __ZSt3getILm0EJP13StableNucleusSt14default_deleteIS0_EEERNSt13tuple_elementIXT_ESt5tupleIJDpT0_EEE4typeERS8_, symObjAddr: 0x1C48, symBinAddr: 0x1000029D8, symSize: 0x1C }
  - { offsetInCU: 0x118AF, offset: 0x118AF, size: 0x8, addend: 0x0, symName: __ZNSt15__uniq_ptr_implI13StableNucleusSt14default_deleteIS0_EEC2EPS0_, symObjAddr: 0x1C0C, symBinAddr: 0x10000299C, symSize: 0x3C }
  - { offsetInCU: 0x1189B, offset: 0x1189B, size: 0x8, addend: 0x0, symName: __ZNSt7__cxx1112basic_stringIcSt11char_traitsIcESaIcEE12_M_constructIPKcEEvT_S8_St20forward_iterator_tag, symObjAddr: 0x1B10, symBinAddr: 0x1000028A0, symSize: 0xFC }
  - { offsetInCU: 0x118FE, offset: 0x118FE, size: 0x8, addend: 0x0, symName: __ZSt8distanceIPKcENSt15iterator_traitsIT_E15difference_typeES3_S3_, symObjAddr: 0x1AD4, symBinAddr: 0x100002864, symSize: 0x3C }
  - { offsetInCU: 0x1193D, offset: 0x1193D, size: 0x8, addend: 0x0, symName: __ZSt8_DestroyIPSt10unique_ptrI7NucleusSt14default_deleteIS1_EEEvT_S6_, symObjAddr: 0x1AAC, symBinAddr: 0x10000283C, symSize: 0x28 }
  - { offsetInCU: 0x1197C, offset: 0x1197C, size: 0x8, addend: 0x0, symName: __ZNSt16allocator_traitsISaISt10unique_ptrI7NucleusSt14default_deleteIS1_EEEE10deallocateERS5_PS4_m, symObjAddr: 0x1A7C, symBinAddr: 0x10000280C, symSize: 0x30 }
  - { offsetInCU: 0x11A2E, offset: 0x11A2E, size: 0x8, addend: 0x0, symName: __ZN9__gnu_cxx13new_allocatorISt10unique_ptrI7NucleusSt14default_deleteIS2_EEEC2Ev, symObjAddr: 0x1A68, symBinAddr: 0x1000027F8, symSize: 0x14 }
  - { offsetInCU: 0x11A05, offset: 0x11A05, size: 0x8, addend: 0x0, symName: __ZNKSt14default_deleteI6PhotonEclEPS0_, symObjAddr: 0x1A30, symBinAddr: 0x1000027C0, symSize: 0x38 }
  - { offsetInCU: 0x11A3E, offset: 0x11A3E, size: 0x8, addend: 0x0, symName: __ZSt4moveIRP6PhotonEONSt16remove_referenceIT_E4typeEOS4_, symObjAddr: 0x1A1C, symBinAddr: 0x1000027AC, symSize: 0x14 }
  - { offsetInCU: 0x11A72, offset: 0x11A72, size: 0x8, addend: 0x0, symName: __ZNSt10unique_ptrI6PhotonSt14default_deleteIS0_EE11get_deleterEv, symObjAddr: 0x1A00, symBinAddr: 0x100002790, symSize: 0x1C }
  - { offsetInCU: 0x11A9A, offset: 0x11A9A, size: 0x8, addend: 0x0, symName: __ZNSt15__uniq_ptr_implI6PhotonSt14default_deleteIS0_EE6_M_ptrEv, symObjAddr: 0x19E4, symBinAddr: 0x100002774, symSize: 0x1C }
  - { offsetInCU: 0x11AC2, offset: 0x11AC2, size: 0x8, addend: 0x0, symName: __ZNKSt10unique_ptrI8ElectronSt14default_deleteIS0_EE3getEv, symObjAddr: 0x19C8, symBinAddr: 0x100002758, symSize: 0x1C }
  - { offsetInCU: 0x11AE6, offset: 0x11AE6, size: 0x8, addend: 0x0, symName: __ZSt8_DestroyIPSt10unique_ptrI8ElectronSt14default_deleteIS1_EES4_EvT_S6_RSaIT0_E, symObjAddr: 0x199C, symBinAddr: 0x10000272C, symSize: 0x2C }
  - { offsetInCU: 0x11B3D, offset: 0x11B3D, size: 0x8, addend: 0x0, symName: __ZNSt12_Vector_baseISt10unique_ptrI8ElectronSt14default_deleteIS1_EESaIS4_EE19_M_get_Tp_allocatorEv, symObjAddr: 0x1988, symBinAddr: 0x100002718, symSize: 0x14 }
  - { offsetInCU: 0x11BD3, offset: 0x11BD3, size: 0x8, addend: 0x0, symName: __ZNSt12_Vector_baseISt10unique_ptrI8ElectronSt14default_deleteIS1_EESaIS4_EED2Ev, symObjAddr: 0x1938, symBinAddr: 0x1000026C8, symSize: 0x50 }
  - { offsetInCU: 0x11C2B, offset: 0x11C2B, size: 0x8, addend: 0x0, symName: __ZNSt12_Vector_baseISt10unique_ptrI8ElectronSt14default_deleteIS1_EESaIS4_EE12_Vector_implD1Ev, symObjAddr: 0x1918, symBinAddr: 0x1000026A8, symSize: 0x20 }
  - { offsetInCU: 0x11BF5, offset: 0x11BF5, size: 0x8, addend: 0x0, symName: __ZNKSt10unique_ptrI6PhotonSt14default_deleteIS0_EE3getEv, symObjAddr: 0x18FC, symBinAddr: 0x10000268C, symSize: 0x1C }
  - { offsetInCU: 0x11C1D, offset: 0x11C1D, size: 0x8, addend: 0x0, symName: __ZNSt6vectorISt10unique_ptrI6PhotonSt14default_deleteIS1_EESaIS4_EE12emplace_backIJS4_EEERS4_DpOT_, symObjAddr: 0x185C, symBinAddr: 0x1000025EC, symSize: 0xA0 }
  - { offsetInCU: 0x11C5F, offset: 0x11C5F, size: 0x8, addend: 0x0, symName: __ZNK9__gnu_cxx17__normal_iteratorIPSt10unique_ptrI6PhotonSt14default_deleteIS2_EESt6vectorIS5_SaIS5_EEE4baseEv, symObjAddr: 0x1848, symBinAddr: 0x1000025D8, symSize: 0x14 }
  - { offsetInCU: 0x11D18, offset: 0x11D18, size: 0x8, addend: 0x0, symName: __ZN9__gnu_cxx17__normal_iteratorIPSt10unique_ptrI6PhotonSt14default_deleteIS2_EESt6vectorIS5_SaIS5_EEEC1ERKS6_, symObjAddr: 0x1820, symBinAddr: 0x1000025B0, symSize: 0x28 }
  - { offsetInCU: 0x11CDB, offset: 0x11CDB, size: 0x8, addend: 0x0, symName: __ZNKSt10unique_ptrI7NucleusSt14default_deleteIS0_EE3getEv, symObjAddr: 0x1804, symBinAddr: 0x100002594, symSize: 0x1C }
  - { offsetInCU: 0x11CFF, offset: 0x11CFF, size: 0x8, addend: 0x0, symName: __ZSt8_DestroyIPSt10unique_ptrI6PhotonSt14default_deleteIS1_EES4_EvT_S6_RSaIT0_E, symObjAddr: 0x17D8, symBinAddr: 0x100002568, symSize: 0x2C }
  - { offsetInCU: 0x11D56, offset: 0x11D56, size: 0x8, addend: 0x0, symName: __ZNSt12_Vector_baseISt10unique_ptrI6PhotonSt14default_deleteIS1_EESaIS4_EE19_M_get_Tp_allocatorEv, symObjAddr: 0x17C4, symBinAddr: 0x100002554, symSize: 0x14 }
  - { offsetInCU: 0x11D7E, offset: 0x11D7E, size: 0x8, addend: 0x0, symName: __ZNSt12_Vector_baseISt10unique_ptrI6PhotonSt14default_deleteIS1_EESaIS4_EE13_M_deallocateEPS4_m, symObjAddr: 0x1788, symBinAddr: 0x100002518, symSize: 0x3C }
  - { offsetInCU: 0x11E34, offset: 0x11E34, size: 0x8, addend: 0x0, symName: __ZN9__gnu_cxx13new_allocatorISt10unique_ptrI6PhotonSt14default_deleteIS2_EEED2Ev, symObjAddr: 0x1774, symBinAddr: 0x100002504, symSize: 0x14 }
  - { offsetInCU: 0x11E82, offset: 0x11E82, size: 0x8, addend: 0x0, symName: __ZNSt12_Vector_baseISt10unique_ptrI6PhotonSt14default_deleteIS1_EESaIS4_EE17_Vector_impl_dataC2Ev, symObjAddr: 0x1748, symBinAddr: 0x1000024D8, symSize: 0x2C }
  - { offsetInCU: 0x11E97, offset: 0x11E97, size: 0x8, addend: 0x0, symName: __ZNSaISt10unique_ptrI6PhotonSt14default_deleteIS0_EEEC2Ev, symObjAddr: 0x1728, symBinAddr: 0x1000024B8, symSize: 0x20 }
  - { offsetInCU: 0x11F1A, offset: 0x11F1A, size: 0x8, addend: 0x0, symName: __ZNSt15__uniq_ptr_implI7NucleusSt14default_deleteIS0_EEC2IS1_I18RadioactiveNucleusEEEPS0_OT_, symObjAddr: 0x16DC, symBinAddr: 0x10000246C, symSize: 0x4C }
  - { offsetInCU: 0x11F03, offset: 0x11F03, size: 0x8, addend: 0x0, symName: __ZSt7forwardISt14default_deleteI18RadioactiveNucleusEEOT_RNSt16remove_referenceIS3_E4typeE, symObjAddr: 0x16C8, symBinAddr: 0x100002458, symSize: 0x14 }
  - { offsetInCU: 0x11F37, offset: 0x11F37, size: 0x8, addend: 0x0, symName: __ZNSt10unique_ptrI18RadioactiveNucleusSt14default_deleteIS0_EE7releaseEv, symObjAddr: 0x16AC, symBinAddr: 0x10000243C, symSize: 0x1C }
  - { offsetInCU: 0x11F5F, offset: 0x11F5F, size: 0x8, addend: 0x0, symName: __ZNKSt14default_deleteI18RadioactiveNucleusEclEPS0_, symObjAddr: 0x1674, symBinAddr: 0x100002404, symSize: 0x38 }
  - { offsetInCU: 0x11F98, offset: 0x11F98, size: 0x8, addend: 0x0, symName: __ZSt4moveIRP18RadioactiveNucleusEONSt16remove_referenceIT_E4typeEOS4_, symObjAddr: 0x1660, symBinAddr: 0x1000023F0, symSize: 0x14 }
  - { offsetInCU: 0x11FCC, offset: 0x11FCC, size: 0x8, addend: 0x0, symName: __ZNSt10unique_ptrI18RadioactiveNucleusSt14default_deleteIS0_EE11get_deleterEv, symObjAddr: 0x1644, symBinAddr: 0x1000023D4, symSize: 0x1C }
  - { offsetInCU: 0x11FF4, offset: 0x11FF4, size: 0x8, addend: 0x0, symName: __ZNSt15__uniq_ptr_implI18RadioactiveNucleusSt14default_deleteIS0_EE6_M_ptrEv, symObjAddr: 0x1628, symBinAddr: 0x1000023B8, symSize: 0x1C }
  - { offsetInCU: 0x12093, offset: 0x12093, size: 0x8, addend: 0x0, symName: __ZNSt10unique_ptrI18RadioactiveNucleusSt14default_deleteIS0_EEC1IS2_vEEPS0_, symObjAddr: 0x1600, symBinAddr: 0x100002390, symSize: 0x28 }
  - { offsetInCU: 0x1210E, offset: 0x1210E, size: 0x8, addend: 0x0, symName: __ZNSt15__uniq_ptr_dataI18RadioactiveNucleusSt14default_deleteIS0_ELb1ELb1EECI1St15__uniq_ptr_implIS0_S2_EEPS0_, symObjAddr: 0x15D8, symBinAddr: 0x100002368, symSize: 0x28 }
  - { offsetInCU: 0x120D9, offset: 0x120D9, size: 0x8, addend: 0x0, symName: __ZSt7forwardIdEOT_RNSt16remove_referenceIS0_E4typeE, symObjAddr: 0x15C4, symBinAddr: 0x100002354, symSize: 0x14 }
  - { offsetInCU: 0x1210D, offset: 0x1210D, size: 0x8, addend: 0x0, symName: __ZNSt6vectorISt10unique_ptrI7NucleusSt14default_deleteIS1_EESaIS4_EE12emplace_backIJS4_EEERS4_DpOT_, symObjAddr: 0x1524, symBinAddr: 0x1000022B4, symSize: 0xA0 }
  - { offsetInCU: 0x12151, offset: 0x12151, size: 0x8, addend: 0x0, symName: __ZSt4moveIRSt10unique_ptrI7NucleusSt14default_deleteIS1_EEEONSt16remove_referenceIT_E4typeEOS7_, symObjAddr: 0x1510, symBinAddr: 0x1000022A0, symSize: 0x14 }
  - { offsetInCU: 0x12185, offset: 0x12185, size: 0x8, addend: 0x0, symName: __ZNKSt14default_deleteI7NucleusEclEPS0_, symObjAddr: 0x14D8, symBinAddr: 0x100002268, symSize: 0x38 }
  - { offsetInCU: 0x121BE, offset: 0x121BE, size: 0x8, addend: 0x0, symName: __ZSt4moveIRP7NucleusEONSt16remove_referenceIT_E4typeEOS4_, symObjAddr: 0x14C4, symBinAddr: 0x100002254, symSize: 0x14 }
  - { offsetInCU: 0x121F2, offset: 0x121F2, size: 0x8, addend: 0x0, symName: __ZNSt10unique_ptrI7NucleusSt14default_deleteIS0_EE11get_deleterEv, symObjAddr: 0x14A8, symBinAddr: 0x100002238, symSize: 0x1C }
  - { offsetInCU: 0x1221A, offset: 0x1221A, size: 0x8, addend: 0x0, symName: __ZNSt15__uniq_ptr_implI7NucleusSt14default_deleteIS0_EE6_M_ptrEv, symObjAddr: 0x148C, symBinAddr: 0x10000221C, symSize: 0x1C }
  - { offsetInCU: 0x122D1, offset: 0x122D1, size: 0x8, addend: 0x0, symName: __ZNSt15__uniq_ptr_implI7NucleusSt14default_deleteIS0_EEC2IS1_I13StableNucleusEEEPS0_OT_, symObjAddr: 0x1440, symBinAddr: 0x1000021D0, symSize: 0x4C }
  - { offsetInCU: 0x122BF, offset: 0x122BF, size: 0x8, addend: 0x0, symName: __ZSt7forwardISt14default_deleteI13StableNucleusEEOT_RNSt16remove_referenceIS3_E4typeE, symObjAddr: 0x142C, symBinAddr: 0x1000021BC, symSize: 0x14 }
  - { offsetInCU: 0x122F3, offset: 0x122F3, size: 0x8, addend: 0x0, symName: __ZNSt10unique_ptrI13StableNucleusSt14default_deleteIS0_EE7releaseEv, symObjAddr: 0x1410, symBinAddr: 0x1000021A0, symSize: 0x1C }
  - { offsetInCU: 0x1231B, offset: 0x1231B, size: 0x8, addend: 0x0, symName: __ZNKSt14default_deleteI13StableNucleusEclEPS0_, symObjAddr: 0x13D8, symBinAddr: 0x100002168, symSize: 0x38 }
  - { offsetInCU: 0x12354, offset: 0x12354, size: 0x8, addend: 0x0, symName: __ZSt4moveIRP13StableNucleusEONSt16remove_referenceIT_E4typeEOS4_, symObjAddr: 0x13C4, symBinAddr: 0x100002154, symSize: 0x14 }
  - { offsetInCU: 0x12388, offset: 0x12388, size: 0x8, addend: 0x0, symName: __ZNSt10unique_ptrI13StableNucleusSt14default_deleteIS0_EE11get_deleterEv, symObjAddr: 0x13A8, symBinAddr: 0x100002138, symSize: 0x1C }
  - { offsetInCU: 0x123B0, offset: 0x123B0, size: 0x8, addend: 0x0, symName: __ZNSt15__uniq_ptr_implI13StableNucleusSt14default_deleteIS0_EE6_M_ptrEv, symObjAddr: 0x138C, symBinAddr: 0x10000211C, symSize: 0x1C }
  - { offsetInCU: 0x1244A, offset: 0x1244A, size: 0x8, addend: 0x0, symName: __ZNSt10unique_ptrI13StableNucleusSt14default_deleteIS0_EEC1IS2_vEEPS0_, symObjAddr: 0x1364, symBinAddr: 0x1000020F4, symSize: 0x28 }
  - { offsetInCU: 0x124C5, offset: 0x124C5, size: 0x8, addend: 0x0, symName: __ZNSt15__uniq_ptr_dataI13StableNucleusSt14default_deleteIS0_ELb1ELb1EECI1St15__uniq_ptr_implIS0_S2_EEPS0_, symObjAddr: 0x133C, symBinAddr: 0x1000020CC, symSize: 0x28 }
  - { offsetInCU: 0x12514, offset: 0x12514, size: 0x8, addend: 0x0, symName: __ZNSt7__cxx1112basic_stringIcSt11char_traitsIcESaIcEEC1IS3_EEPKcRKS3_, symObjAddr: 0x12A4, symBinAddr: 0x100002034, symSize: 0x98 }
  - { offsetInCU: 0x1253E, offset: 0x1253E, size: 0x8, addend: 0x0, symName: __ZSt7forwardIiEOT_RNSt16remove_referenceIS0_E4typeE, symObjAddr: 0x1290, symBinAddr: 0x100002020, symSize: 0x14 }
  - { offsetInCU: 0x1257A, offset: 0x1257A, size: 0x8, addend: 0x0, symName: __ZSt7forwardIRA3_KcEOT_RNSt16remove_referenceIS3_E4typeE, symObjAddr: 0x127C, symBinAddr: 0x10000200C, symSize: 0x14 }
  - { offsetInCU: 0x125AA, offset: 0x125AA, size: 0x8, addend: 0x0, symName: __ZSt8_DestroyIPSt10unique_ptrI7NucleusSt14default_deleteIS1_EES4_EvT_S6_RSaIT0_E, symObjAddr: 0x1250, symBinAddr: 0x100001FE0, symSize: 0x2C }
  - { offsetInCU: 0x12601, offset: 0x12601, size: 0x8, addend: 0x0, symName: __ZNSt12_Vector_baseISt10unique_ptrI7NucleusSt14default_deleteIS1_EESaIS4_EE19_M_get_Tp_allocatorEv, symObjAddr: 0x123C, symBinAddr: 0x100001FCC, symSize: 0x14 }
  - { offsetInCU: 0x12629, offset: 0x12629, size: 0x8, addend: 0x0, symName: __ZNSt12_Vector_baseISt10unique_ptrI7NucleusSt14default_deleteIS1_EESaIS4_EE13_M_deallocateEPS4_m, symObjAddr: 0x1200, symBinAddr: 0x100001F90, symSize: 0x3C }
  - { offsetInCU: 0x126E0, offset: 0x126E0, size: 0x8, addend: 0x0, symName: __ZN9__gnu_cxx13new_allocatorISt10unique_ptrI7NucleusSt14default_deleteIS2_EEED2Ev, symObjAddr: 0x11EC, symBinAddr: 0x100001F7C, symSize: 0x14 }
  - { offsetInCU: 0x1272E, offset: 0x1272E, size: 0x8, addend: 0x0, symName: __ZNSt12_Vector_baseISt10unique_ptrI7NucleusSt14default_deleteIS1_EESaIS4_EE17_Vector_impl_dataC2Ev, symObjAddr: 0x11C0, symBinAddr: 0x100001F50, symSize: 0x2C }
  - { offsetInCU: 0x12743, offset: 0x12743, size: 0x8, addend: 0x0, symName: __ZNSaISt10unique_ptrI7NucleusSt14default_deleteIS0_EEEC2Ev, symObjAddr: 0x11A0, symBinAddr: 0x100001F30, symSize: 0x20 }
  - { offsetInCU: 0x12795, offset: 0x12795, size: 0x8, addend: 0x0, symName: __ZNSt10unique_ptrI6PhotonSt14default_deleteIS0_EED1Ev, symObjAddr: 0x1138, symBinAddr: 0x100001EC8, symSize: 0x68 }
  - { offsetInCU: 0x127B5, offset: 0x127B5, size: 0x8, addend: 0x0, symName: __ZNKSt10unique_ptrI8ElectronSt14default_deleteIS0_EEdeEv, symObjAddr: 0x110C, symBinAddr: 0x100001E9C, symSize: 0x2C }
  - { offsetInCU: 0x127DD, offset: 0x127DD, size: 0x8, addend: 0x0, symName: __ZNSt6vectorISt10unique_ptrI8ElectronSt14default_deleteIS1_EESaIS4_EEixEm, symObjAddr: 0x10E4, symBinAddr: 0x100001E74, symSize: 0x28 }
  - { offsetInCU: 0x1287C, offset: 0x1287C, size: 0x8, addend: 0x0, symName: __ZNSt6vectorISt10unique_ptrI8ElectronSt14default_deleteIS1_EESaIS4_EED1Ev, symObjAddr: 0x1094, symBinAddr: 0x100001E24, symSize: 0x50 }
  - { offsetInCU: 0x1285B, offset: 0x1285B, size: 0x8, addend: 0x0, symName: __ZNKSt10unique_ptrI6PhotonSt14default_deleteIS0_EEdeEv, symObjAddr: 0x1068, symBinAddr: 0x100001DF8, symSize: 0x2C }
  - { offsetInCU: 0x12883, offset: 0x12883, size: 0x8, addend: 0x0, symName: __ZNSt6vectorISt10unique_ptrI6PhotonSt14default_deleteIS1_EESaIS4_EEixEm, symObjAddr: 0x1040, symBinAddr: 0x100001DD0, symSize: 0x28 }
  - { offsetInCU: 0x128BB, offset: 0x128BB, size: 0x8, addend: 0x0, symName: __ZNKSt10unique_ptrI6PhotonSt14default_deleteIS0_EEptEv, symObjAddr: 0x1024, symBinAddr: 0x100001DB4, symSize: 0x1C }
  - { offsetInCU: 0x128E3, offset: 0x128E3, size: 0x8, addend: 0x0, symName: __ZNSt6vectorISt10unique_ptrI6PhotonSt14default_deleteIS1_EESaIS4_EE9push_backEOS4_, symObjAddr: 0xFF4, symBinAddr: 0x100001D84, symSize: 0x30 }
  - { offsetInCU: 0x1291D, offset: 0x1291D, size: 0x8, addend: 0x0, symName: __ZSt4moveIRSt10unique_ptrI6PhotonSt14default_deleteIS1_EEEONSt16remove_referenceIT_E4typeEOS7_, symObjAddr: 0xFE0, symBinAddr: 0x100001D70, symSize: 0x14 }
  - { offsetInCU: 0x12951, offset: 0x12951, size: 0x8, addend: 0x0, symName: __ZNK9__gnu_cxx17__normal_iteratorIPSt10unique_ptrI6PhotonSt14default_deleteIS2_EESt6vectorIS5_SaIS5_EEEdeEv, symObjAddr: 0xFC8, symBinAddr: 0x100001D58, symSize: 0x18 }
  - { offsetInCU: 0x12979, offset: 0x12979, size: 0x8, addend: 0x0, symName: __ZN9__gnu_cxx17__normal_iteratorIPSt10unique_ptrI6PhotonSt14default_deleteIS2_EESt6vectorIS5_SaIS5_EEEppEv, symObjAddr: 0xFA0, symBinAddr: 0x100001D30, symSize: 0x28 }
  - { offsetInCU: 0x1299D, offset: 0x1299D, size: 0x8, addend: 0x0, symName: __ZN9__gnu_cxxneIPSt10unique_ptrI6PhotonSt14default_deleteIS2_EESt6vectorIS5_SaIS5_EEEEbRKNS_17__normal_iteratorIT_T0_EESF_, symObjAddr: 0xF5C, symBinAddr: 0x100001CEC, symSize: 0x44 }
  - { offsetInCU: 0x129EB, offset: 0x129EB, size: 0x8, addend: 0x0, symName: __ZNSt6vectorISt10unique_ptrI6PhotonSt14default_deleteIS1_EESaIS4_EE3endEv, symObjAddr: 0xF34, symBinAddr: 0x100001CC4, symSize: 0x28 }
  - { offsetInCU: 0x12A13, offset: 0x12A13, size: 0x8, addend: 0x0, symName: __ZNSt6vectorISt10unique_ptrI6PhotonSt14default_deleteIS1_EESaIS4_EE5beginEv, symObjAddr: 0xF10, symBinAddr: 0x100001CA0, symSize: 0x24 }
  - { offsetInCU: 0x12A3B, offset: 0x12A3B, size: 0x8, addend: 0x0, symName: __ZNKSt6vectorISt10unique_ptrI7NucleusSt14default_deleteIS1_EESaIS4_EE4sizeEv, symObjAddr: 0xEE8, symBinAddr: 0x100001C78, symSize: 0x28 }
  - { offsetInCU: 0x12A63, offset: 0x12A63, size: 0x8, addend: 0x0, symName: __ZNKSt10unique_ptrI7NucleusSt14default_deleteIS0_EEptEv, symObjAddr: 0xECC, symBinAddr: 0x100001C5C, symSize: 0x1C }
  - { offsetInCU: 0x12A8B, offset: 0x12A8B, size: 0x8, addend: 0x0, symName: __ZNSt6vectorISt10unique_ptrI7NucleusSt14default_deleteIS1_EESaIS4_EEixEm, symObjAddr: 0xEA4, symBinAddr: 0x100001C34, symSize: 0x28 }
  - { offsetInCU: 0x12B28, offset: 0x12B28, size: 0x8, addend: 0x0, symName: __ZNSt6vectorISt10unique_ptrI6PhotonSt14default_deleteIS1_EESaIS4_EED1Ev, symObjAddr: 0xE54, symBinAddr: 0x100001BE4, symSize: 0x50 }
  - { offsetInCU: 0x12B75, offset: 0x12B75, size: 0x8, addend: 0x0, symName: __ZNSt12_Vector_baseISt10unique_ptrI6PhotonSt14default_deleteIS1_EESaIS4_EED2Ev, symObjAddr: 0xE04, symBinAddr: 0x100001B94, symSize: 0x50 }
  - { offsetInCU: 0x12BA6, offset: 0x12BA6, size: 0x8, addend: 0x0, symName: __ZNSaISt10unique_ptrI6PhotonSt14default_deleteIS0_EEED2Ev, symObjAddr: 0xDE4, symBinAddr: 0x100001B74, symSize: 0x20 }
  - { offsetInCU: 0x12C06, offset: 0x12C06, size: 0x8, addend: 0x0, symName: __ZNSt12_Vector_baseISt10unique_ptrI6PhotonSt14default_deleteIS1_EESaIS4_EE12_Vector_implC1Ev, symObjAddr: 0xDBC, symBinAddr: 0x100001B4C, symSize: 0x28 }
  - { offsetInCU: 0x12C65, offset: 0x12C65, size: 0x8, addend: 0x0, symName: __ZNSt10unique_ptrI7NucleusSt14default_deleteIS0_EEC1I18RadioactiveNucleusS1_IS5_EvEEOS_IT_T0_E, symObjAddr: 0xD6C, symBinAddr: 0x100001AFC, symSize: 0x50 }
  - { offsetInCU: 0x12CF6, offset: 0x12CF6, size: 0x8, addend: 0x0, symName: __ZNSt15__uniq_ptr_dataI7NucleusSt14default_deleteIS0_ELb1ELb1EECI1St15__uniq_ptr_implIS0_S2_EIS1_I18RadioactiveNucleusEEEPS0_OT_, symObjAddr: 0xD3C, symBinAddr: 0x100001ACC, symSize: 0x30 }
  - { offsetInCU: 0x12D2A, offset: 0x12D2A, size: 0x8, addend: 0x0, symName: __ZNSt10unique_ptrI18RadioactiveNucleusSt14default_deleteIS0_EED1Ev, symObjAddr: 0xCD4, symBinAddr: 0x100001A64, symSize: 0x68 }
  - { offsetInCU: 0x12D39, offset: 0x12D39, size: 0x8, addend: 0x0, symName: __ZSt11make_uniqueI18RadioactiveNucleusJRA3_KciidEENSt9_MakeUniqIT_E15__single_objectEDpOT0_, symObjAddr: 0xBBC, symBinAddr: 0x10000194C, symSize: 0x118 }
  - { offsetInCU: 0x12DA5, offset: 0x12DA5, size: 0x8, addend: 0x0, symName: __ZNSt6vectorISt10unique_ptrI7NucleusSt14default_deleteIS1_EESaIS4_EE9push_backEOS4_, symObjAddr: 0xB8C, symBinAddr: 0x10000191C, symSize: 0x30 }
  - { offsetInCU: 0x12E42, offset: 0x12E42, size: 0x8, addend: 0x0, symName: __ZNSt10unique_ptrI7NucleusSt14default_deleteIS0_EED1Ev, symObjAddr: 0xB24, symBinAddr: 0x1000018B4, symSize: 0x68 }
  - { offsetInCU: 0x12EEF, offset: 0x12EEF, size: 0x8, addend: 0x0, symName: __ZNSt10unique_ptrI7NucleusSt14default_deleteIS0_EEC1I13StableNucleusS1_IS5_EvEEOS_IT_T0_E, symObjAddr: 0xAD4, symBinAddr: 0x100001864, symSize: 0x50 }
  - { offsetInCU: 0x12F80, offset: 0x12F80, size: 0x8, addend: 0x0, symName: __ZNSt15__uniq_ptr_dataI7NucleusSt14default_deleteIS0_ELb1ELb1EECI1St15__uniq_ptr_implIS0_S2_EIS1_I13StableNucleusEEEPS0_OT_, symObjAddr: 0xAA4, symBinAddr: 0x100001834, symSize: 0x30 }
  - { offsetInCU: 0x12FB4, offset: 0x12FB4, size: 0x8, addend: 0x0, symName: __ZNSt10unique_ptrI13StableNucleusSt14default_deleteIS0_EED1Ev, symObjAddr: 0xA3C, symBinAddr: 0x1000017CC, symSize: 0x68 }
  - { offsetInCU: 0x12FC8, offset: 0x12FC8, size: 0x8, addend: 0x0, symName: __ZSt11make_uniqueI13StableNucleusJRA3_KciiEENSt9_MakeUniqIT_E15__single_objectEDpOT0_, symObjAddr: 0x940, symBinAddr: 0x1000016D0, symSize: 0xFC }
  - { offsetInCU: 0x1308B, offset: 0x1308B, size: 0x8, addend: 0x0, symName: __ZNSt6vectorISt10unique_ptrI7NucleusSt14default_deleteIS1_EESaIS4_EED1Ev, symObjAddr: 0x8F0, symBinAddr: 0x100001680, symSize: 0x50 }
  - { offsetInCU: 0x130D8, offset: 0x130D8, size: 0x8, addend: 0x0, symName: __ZNSt12_Vector_baseISt10unique_ptrI7NucleusSt14default_deleteIS1_EESaIS4_EED2Ev, symObjAddr: 0x8A0, symBinAddr: 0x100001630, symSize: 0x50 }
  - { offsetInCU: 0x13109, offset: 0x13109, size: 0x8, addend: 0x0, symName: __ZNSaISt10unique_ptrI7NucleusSt14default_deleteIS0_EEED2Ev, symObjAddr: 0x880, symBinAddr: 0x100001610, symSize: 0x20 }
  - { offsetInCU: 0x13169, offset: 0x13169, size: 0x8, addend: 0x0, symName: __ZNSt12_Vector_baseISt10unique_ptrI7NucleusSt14default_deleteIS1_EESaIS4_EE12_Vector_implC1Ev, symObjAddr: 0x858, symBinAddr: 0x1000015E8, symSize: 0x28 }
  - { offsetInCU: 0x1319D, offset: 0x1319D, size: 0x8, addend: 0x0, symName: __ZNSt7__cxx1112basic_stringIcSt11char_traitsIcESaIcEE12_Alloc_hiderD1Ev, symObjAddr: 0x838, symBinAddr: 0x1000015C8, symSize: 0x20 }
  - { offsetInCU: 0x1317A, offset: 0x1317A, size: 0x8, addend: 0x0, symName: __ZN9__gnu_cxx11char_traitsIcE6lengthEPKc, symObjAddr: 0x7E4, symBinAddr: 0x100001574, symSize: 0x54 }
  - { offsetInCU: 0x131B0, offset: 0x131B0, size: 0x8, addend: 0x0, symName: __ZN9__gnu_cxx11char_traitsIcE2eqERKcS3_, symObjAddr: 0x7B4, symBinAddr: 0x100001544, symSize: 0x30 }
  - { offsetInCU: 0x131EF, offset: 0x131EF, size: 0x8, addend: 0x0, symName: _main, symObjAddr: 0x118, symBinAddr: 0x100000EA8, symSize: 0x69C }
  - { offsetInCU: 0x13385, offset: 0x13385, size: 0x8, addend: 0x0, symName: __ZNSt6vectorISt10unique_ptrI6PhotonSt14default_deleteIS1_EESaIS4_EEC1Ev, symObjAddr: 0xF8, symBinAddr: 0x100000E88, symSize: 0x20 }
  - { offsetInCU: 0x133C9, offset: 0x133C9, size: 0x8, addend: 0x0, symName: __ZNSt12_Vector_baseISt10unique_ptrI6PhotonSt14default_deleteIS1_EESaIS4_EEC2Ev, symObjAddr: 0xD8, symBinAddr: 0x100000E68, symSize: 0x20 }
  - { offsetInCU: 0x13421, offset: 0x13421, size: 0x8, addend: 0x0, symName: __ZNSt12_Vector_baseISt10unique_ptrI6PhotonSt14default_deleteIS1_EESaIS4_EE12_Vector_implD1Ev, symObjAddr: 0xB8, symBinAddr: 0x100000E48, symSize: 0x20 }
  - { offsetInCU: 0x1344A, offset: 0x1344A, size: 0x8, addend: 0x0, symName: __ZNSt6vectorISt10unique_ptrI7NucleusSt14default_deleteIS1_EESaIS4_EEC1Ev, symObjAddr: 0x98, symBinAddr: 0x100000E28, symSize: 0x20 }
  - { offsetInCU: 0x1348E, offset: 0x1348E, size: 0x8, addend: 0x0, symName: __ZNSt12_Vector_baseISt10unique_ptrI7NucleusSt14default_deleteIS1_EESaIS4_EEC2Ev, symObjAddr: 0x78, symBinAddr: 0x100000E08, symSize: 0x20 }
  - { offsetInCU: 0x134E6, offset: 0x134E6, size: 0x8, addend: 0x0, symName: __ZNSt12_Vector_baseISt10unique_ptrI7NucleusSt14default_deleteIS1_EESaIS4_EE12_Vector_implD1Ev, symObjAddr: 0x58, symBinAddr: 0x100000DE8, symSize: 0x20 }
  - { offsetInCU: 0x134AD, offset: 0x134AD, size: 0x8, addend: 0x0, symName: __ZNSt11char_traitsIcE6lengthEPKc, symObjAddr: 0x18, symBinAddr: 0x100000DA8, symSize: 0x40 }
  - { offsetInCU: 0x13528, offset: 0x13528, size: 0x8, addend: 0x0, symName: __ZnwmPv, symObjAddr: 0x0, symBinAddr: 0x100000D90, symSize: 0x18 }
  - { offsetInCU: 0x4266, offset: 0x177B6, size: 0x8, addend: 0x0, symName: __ZStL8__ioinit, symObjAddr: 0x2BE20, symBinAddr: 0x100014001, symSize: 0x0 }
  - { offsetInCU: 0x477D, offset: 0x17CCD, size: 0x8, addend: 0x0, symName: __GLOBAL__sub_I_Nucleus.cpp, symObjAddr: 0x860, symBinAddr: 0x100005080, symSize: 0x1C }
  - { offsetInCU: 0x47A3, offset: 0x17CF3, size: 0x8, addend: 0x0, symName: __Z41__static_initialization_and_destruction_0ii, symObjAddr: 0x800, symBinAddr: 0x100005020, symSize: 0x60 }
  - { offsetInCU: 0x4805, offset: 0x17D55, size: 0x8, addend: 0x0, symName: __ZNSt10_Head_baseILm1ESt14default_deleteI6PhotonELb1EEC2Ev, symObjAddr: 0x5F8, symBinAddr: 0x10000500C, symSize: 0x14 }
  - { offsetInCU: 0x482F, offset: 0x17D7F, size: 0x8, addend: 0x0, symName: __ZNSt10_Head_baseILm0EP6PhotonLb0EEC2Ev, symObjAddr: 0x5A4, symBinAddr: 0x100004FF0, symSize: 0x1C }
  - { offsetInCU: 0x487E, offset: 0x17DCE, size: 0x8, addend: 0x0, symName: __ZNSt11_Tuple_implILm1EJSt14default_deleteI6PhotonEEEC2Ev, symObjAddr: 0x584, symBinAddr: 0x100004FD0, symSize: 0x20 }
  - { offsetInCU: 0x48BF, offset: 0x17E0F, size: 0x8, addend: 0x0, symName: __ZNSt11_Tuple_implILm0EJP6PhotonSt14default_deleteIS0_EEEC2Ev, symObjAddr: 0x4D8, symBinAddr: 0x100004FA8, symSize: 0x28 }
  - { offsetInCU: 0x4903, offset: 0x17E53, size: 0x8, addend: 0x0, symName: __ZNSt10unique_ptrI6PhotonSt14default_deleteIS0_EEC1IS2_vEEv, symObjAddr: 0x448, symBinAddr: 0x100004F80, symSize: 0x28 }
  - { offsetInCU: 0x4970, offset: 0x17EC0, size: 0x8, addend: 0x0, symName: __ZNSt15__uniq_ptr_dataI6PhotonSt14default_deleteIS0_ELb1ELb1EECI1St15__uniq_ptr_implIS0_S2_EEv, symObjAddr: 0x428, symBinAddr: 0x100004F60, symSize: 0x20 }
  - { offsetInCU: 0x4989, offset: 0x17ED9, size: 0x8, addend: 0x0, symName: __ZNSt15__uniq_ptr_implI6PhotonSt14default_deleteIS0_EEC2Ev, symObjAddr: 0x408, symBinAddr: 0x100004F40, symSize: 0x20 }
  - { offsetInCU: 0x49D2, offset: 0x17F22, size: 0x8, addend: 0x0, symName: __ZNSt5tupleIJP6PhotonSt14default_deleteIS0_EEEC1ILb1ELb1EEEv, symObjAddr: 0x3E8, symBinAddr: 0x100004F20, symSize: 0x20 }
  - { offsetInCU: 0x49C8, offset: 0x17F18, size: 0x8, addend: 0x0, symName: __ZNK7Nucleus16get_decay_statusEv, symObjAddr: 0x3D0, symBinAddr: 0x100004F08, symSize: 0x18 }
  - { offsetInCU: 0x49F0, offset: 0x17F40, size: 0x8, addend: 0x0, symName: __ZNK7Nucleus17get_atomic_numberEv, symObjAddr: 0x3B8, symBinAddr: 0x100004EF0, symSize: 0x18 }
  - { offsetInCU: 0x4A18, offset: 0x17F68, size: 0x8, addend: 0x0, symName: __ZNK7Nucleus15get_atomic_massEv, symObjAddr: 0x3A0, symBinAddr: 0x100004ED8, symSize: 0x18 }
  - { offsetInCU: 0x4A40, offset: 0x17F90, size: 0x8, addend: 0x0, symName: __ZNK7Nucleus16get_nucleus_typeB5cxx11Ev, symObjAddr: 0x368, symBinAddr: 0x100004EA0, symSize: 0x38 }
  - { offsetInCU: 0x4AF6, offset: 0x18046, size: 0x8, addend: 0x0, symName: __ZN7NucleusC1ENSt7__cxx1112basic_stringIcSt11char_traitsIcESaIcEEEiib, symObjAddr: 0x1B4, symBinAddr: 0x100004CEC, symSize: 0x1B4 }
  - { offsetInCU: 0x4B45, offset: 0x18095, size: 0x8, addend: 0x0, symName: __ZN7NucleusC2ENSt7__cxx1112basic_stringIcSt11char_traitsIcESaIcEEEiib, symObjAddr: 0x0, symBinAddr: 0x100004B38, symSize: 0x1B4 }
  - { offsetInCU: 0x511C, offset: 0x1D1B0, size: 0x8, addend: 0x0, symName: __ZStL8__ioinit, symObjAddr: 0x33480, symBinAddr: 0x100014002, symSize: 0x0 }
  - { offsetInCU: 0x573A, offset: 0x1D7CE, size: 0x8, addend: 0x0, symName: __GLOBAL__sub_I_StableNucleus.cpp, symObjAddr: 0xD38, symBinAddr: 0x1000056C8, symSize: 0x1C }
  - { offsetInCU: 0x575A, offset: 0x1D7EE, size: 0x8, addend: 0x0, symName: __Z41__static_initialization_and_destruction_0ii, symObjAddr: 0xCD8, symBinAddr: 0x100005668, symSize: 0x60 }
  - { offsetInCU: 0x5769, offset: 0x1D7FD, size: 0x8, addend: 0x0, symName: __ZSt7setfillIcESt8_SetfillIT_ES1_, symObjAddr: 0x79C, symBinAddr: 0x100005654, symSize: 0x14 }
  - { offsetInCU: 0x579D, offset: 0x1D831, size: 0x8, addend: 0x0, symName: __ZN13StableNucleus5decayEv, symObjAddr: 0x5A0, symBinAddr: 0x1000055FC, symSize: 0x58 }
  - { offsetInCU: 0x57C5, offset: 0x1D859, size: 0x8, addend: 0x0, symName: __ZN13StableNucleus10print_dataEv, symObjAddr: 0x3C8, symBinAddr: 0x100005424, symSize: 0x1D8 }
  - { offsetInCU: 0x5821, offset: 0x1D8B5, size: 0x8, addend: 0x0, symName: __ZN13StableNucleusD0Ev, symObjAddr: 0x3A0, symBinAddr: 0x1000053FC, symSize: 0x28 }
  - { offsetInCU: 0x584A, offset: 0x1D8DE, size: 0x8, addend: 0x0, symName: __ZN13StableNucleusD1Ev, symObjAddr: 0x348, symBinAddr: 0x1000053A4, symSize: 0x58 }
  - { offsetInCU: 0x5873, offset: 0x1D907, size: 0x8, addend: 0x0, symName: __ZN13StableNucleusD2Ev, symObjAddr: 0x2F0, symBinAddr: 0x10000534C, symSize: 0x58 }
  - { offsetInCU: 0x590C, offset: 0x1D9A0, size: 0x8, addend: 0x0, symName: __ZN13StableNucleusC1ENSt7__cxx1112basic_stringIcSt11char_traitsIcESaIcEEEii, symObjAddr: 0x26C, symBinAddr: 0x1000052C8, symSize: 0x84 }
  - { offsetInCU: 0x5951, offset: 0x1D9E5, size: 0x8, addend: 0x0, symName: __ZN13StableNucleusC2ENSt7__cxx1112basic_stringIcSt11char_traitsIcESaIcEEEii, symObjAddr: 0x1E8, symBinAddr: 0x100005244, symSize: 0x84 }
  - { offsetInCU: 0x5975, offset: 0x1DA09, size: 0x8, addend: 0x0, symName: __ZN13StableNucleusC1Ev, symObjAddr: 0x140, symBinAddr: 0x10000519C, symSize: 0xA8 }
  - { offsetInCU: 0x599E, offset: 0x1DA32, size: 0x8, addend: 0x0, symName: __ZN13StableNucleusC2Ev, symObjAddr: 0x98, symBinAddr: 0x1000050F4, symSize: 0xA8 }
  - { offsetInCU: 0x59DD, offset: 0x1DA71, size: 0x8, addend: 0x0, symName: __ZN7NucleusD2Ev, symObjAddr: 0x54, symBinAddr: 0x1000050B0, symSize: 0x44 }
  - { offsetInCU: 0x59F2, offset: 0x1DA86, size: 0x8, addend: 0x0, symName: __ZSt4setwi, symObjAddr: 0x40, symBinAddr: 0x10000509C, symSize: 0x14 }
  - { offsetInCU: 0x5565, offset: 0x2300E, size: 0x8, addend: 0x0, symName: __ZStL8__ioinit, symObjAddr: 0x3D050, symBinAddr: 0x100014003, symSize: 0x0 }
  - { offsetInCU: 0x5BF9, offset: 0x236A2, size: 0x8, addend: 0x0, symName: __GLOBAL__sub_I_RadioactiveNucleus.cpp, symObjAddr: 0x2100, symBinAddr: 0x1000060EC, symSize: 0x1C }
  - { offsetInCU: 0x5C14, offset: 0x236BD, size: 0x8, addend: 0x0, symName: __Z41__static_initialization_and_destruction_0ii, symObjAddr: 0x20A0, symBinAddr: 0x10000608C, symSize: 0x60 }
  - { offsetInCU: 0x5C86, offset: 0x2372F, size: 0x8, addend: 0x0, symName: __ZNSt15__uniq_ptr_implI6PhotonSt14default_deleteIS0_EEC2EPS0_, symObjAddr: 0x11A8, symBinAddr: 0x100006050, symSize: 0x3C }
  - { offsetInCU: 0x5CE4, offset: 0x2378D, size: 0x8, addend: 0x0, symName: __ZNSt10unique_ptrI6PhotonSt14default_deleteIS0_EEC1IS2_vEEPS0_, symObjAddr: 0xFD0, symBinAddr: 0x100006028, symSize: 0x28 }
  - { offsetInCU: 0x5D5F, offset: 0x23808, size: 0x8, addend: 0x0, symName: __ZNSt15__uniq_ptr_dataI6PhotonSt14default_deleteIS0_ELb1ELb1EECI1St15__uniq_ptr_implIS0_S2_EEPS0_, symObjAddr: 0xFA8, symBinAddr: 0x100006000, symSize: 0x28 }
  - { offsetInCU: 0x5D31, offset: 0x237DA, size: 0x8, addend: 0x0, symName: __ZSt11make_uniqueI6PhotonJdEENSt9_MakeUniqIT_E15__single_objectEDpOT0_, symObjAddr: 0xC54, symBinAddr: 0x100005F88, symSize: 0x78 }
  - { offsetInCU: 0x5D71, offset: 0x2381A, size: 0x8, addend: 0x0, symName: __ZN18RadioactiveNucleus5decayEv, symObjAddr: 0x740, symBinAddr: 0x100005D14, symSize: 0x274 }
  - { offsetInCU: 0x5DA9, offset: 0x23852, size: 0x8, addend: 0x0, symName: __ZN18RadioactiveNucleus10print_dataEv, symObjAddr: 0x4E0, symBinAddr: 0x100005B14, symSize: 0x200 }
  - { offsetInCU: 0x5E0A, offset: 0x238B3, size: 0x8, addend: 0x0, symName: __ZN18RadioactiveNucleusD0Ev, symObjAddr: 0x4B8, symBinAddr: 0x100005AEC, symSize: 0x28 }
  - { offsetInCU: 0x5E33, offset: 0x238DC, size: 0x8, addend: 0x0, symName: __ZN18RadioactiveNucleusD1Ev, symObjAddr: 0x460, symBinAddr: 0x100005A94, symSize: 0x58 }
  - { offsetInCU: 0x5E5C, offset: 0x23905, size: 0x8, addend: 0x0, symName: __ZN18RadioactiveNucleusD2Ev, symObjAddr: 0x408, symBinAddr: 0x100005A3C, symSize: 0x58 }
  - { offsetInCU: 0x5F03, offset: 0x239AC, size: 0x8, addend: 0x0, symName: __ZN18RadioactiveNucleusC1ENSt7__cxx1112basic_stringIcSt11char_traitsIcESaIcEEEiid, symObjAddr: 0x30C, symBinAddr: 0x100005940, symSize: 0xFC }
  - { offsetInCU: 0x5F51, offset: 0x239FA, size: 0x8, addend: 0x0, symName: __ZN18RadioactiveNucleusC2ENSt7__cxx1112basic_stringIcSt11char_traitsIcESaIcEEEiid, symObjAddr: 0x210, symBinAddr: 0x100005844, symSize: 0xFC }
  - { offsetInCU: 0x5F7D, offset: 0x23A26, size: 0x8, addend: 0x0, symName: __ZN18RadioactiveNucleusC1Ev, symObjAddr: 0x160, symBinAddr: 0x100005794, symSize: 0xB0 }
  - { offsetInCU: 0x5FA6, offset: 0x23A4F, size: 0x8, addend: 0x0, symName: __ZN18RadioactiveNucleusC2Ev, symObjAddr: 0xB0, symBinAddr: 0x1000056E4, symSize: 0xB0 }
  - { offsetInCU: 0x3BCC, offset: 0x27620, size: 0x8, addend: 0x0, symName: __ZStL8__ioinit, symObjAddr: 0x26AC8, symBinAddr: 0x100014004, symSize: 0x0 }
  - { offsetInCU: 0x3EAD, offset: 0x27901, size: 0x8, addend: 0x0, symName: __GLOBAL__sub_I_Particle.cpp, symObjAddr: 0x400, symBinAddr: 0x100006400, symSize: 0x1C }
  - { offsetInCU: 0x3ED2, offset: 0x27926, size: 0x8, addend: 0x0, symName: __Z41__static_initialization_and_destruction_0ii, symObjAddr: 0x3A0, symBinAddr: 0x1000063A0, symSize: 0x60 }
  - { offsetInCU: 0x3EE5, offset: 0x27939, size: 0x8, addend: 0x0, symName: __ZNK8Particle13get_rest_massEv, symObjAddr: 0x280, symBinAddr: 0x100006388, symSize: 0x18 }
  - { offsetInCU: 0x3F0D, offset: 0x27961, size: 0x8, addend: 0x0, symName: __ZNK8Particle10get_energyEv, symObjAddr: 0x268, symBinAddr: 0x100006370, symSize: 0x18 }
  - { offsetInCU: 0x3F76, offset: 0x279CA, size: 0x8, addend: 0x0, symName: __ZN8ParticleC1Edd, symObjAddr: 0x134, symBinAddr: 0x10000623C, symSize: 0x134 }
  - { offsetInCU: 0x3FB1, offset: 0x27A05, size: 0x8, addend: 0x0, symName: __ZN8ParticleC2Edd, symObjAddr: 0x0, symBinAddr: 0x100006108, symSize: 0x134 }
  - { offsetInCU: 0x50A1, offset: 0x2CAC6, size: 0x8, addend: 0x0, symName: __ZStL8__ioinit, symObjAddr: 0x34558, symBinAddr: 0x100014005, symSize: 0x0 }
  - { offsetInCU: 0x513A, offset: 0x2CB5F, size: 0x8, addend: 0x0, symName: __ZL18electron_rest_mass, symObjAddr: 0xC10, symBinAddr: 0x100008FB0, symSize: 0x0 }
  - { offsetInCU: 0x5654, offset: 0x2D079, size: 0x8, addend: 0x0, symName: __GLOBAL__sub_I_Electron.cpp, symObjAddr: 0xDE8, symBinAddr: 0x100006954, symSize: 0x1C }
  - { offsetInCU: 0x5679, offset: 0x2D09E, size: 0x8, addend: 0x0, symName: __Z41__static_initialization_and_destruction_0ii, symObjAddr: 0xD88, symBinAddr: 0x1000068F4, symSize: 0x60 }
  - { offsetInCU: 0x56EB, offset: 0x2D110, size: 0x8, addend: 0x0, symName: __ZNSt10unique_ptrI6PhotonSt14default_deleteIS0_EEC1IS2_vEEDn, symObjAddr: 0x75C, symBinAddr: 0x1000068C8, symSize: 0x2C }
  - { offsetInCU: 0x5707, offset: 0x2D12C, size: 0x8, addend: 0x0, symName: __Z7radiateRK8Electron, symObjAddr: 0x45C, symBinAddr: 0x100006804, symSize: 0xC4 }
  - { offsetInCU: 0x571C, offset: 0x2D141, size: 0x8, addend: 0x0, symName: __ZN8Electron10print_dataEv, symObjAddr: 0x2C4, symBinAddr: 0x10000666C, symSize: 0x198 }
  - { offsetInCU: 0x5772, offset: 0x2D197, size: 0x8, addend: 0x0, symName: __ZN8ElectronD0Ev, symObjAddr: 0x29C, symBinAddr: 0x100006644, symSize: 0x28 }
  - { offsetInCU: 0x579B, offset: 0x2D1C0, size: 0x8, addend: 0x0, symName: __ZN8ElectronD1Ev, symObjAddr: 0x238, symBinAddr: 0x1000065E0, symSize: 0x64 }
  - { offsetInCU: 0x57C4, offset: 0x2D1E9, size: 0x8, addend: 0x0, symName: __ZN8ElectronD2Ev, symObjAddr: 0x1D4, symBinAddr: 0x10000657C, symSize: 0x64 }
  - { offsetInCU: 0x580E, offset: 0x2D233, size: 0x8, addend: 0x0, symName: __ZN8ElectronC1Ed, symObjAddr: 0x188, symBinAddr: 0x100006530, symSize: 0x4C }
  - { offsetInCU: 0x5840, offset: 0x2D265, size: 0x8, addend: 0x0, symName: __ZN8ElectronC2Ed, symObjAddr: 0x13C, symBinAddr: 0x1000064E4, symSize: 0x4C }
  - { offsetInCU: 0x5886, offset: 0x2D2AB, size: 0x8, addend: 0x0, symName: __ZN8ElectronC1Ev, symObjAddr: 0xF4, symBinAddr: 0x10000649C, symSize: 0x48 }
  - { offsetInCU: 0x58AF, offset: 0x2D2D4, size: 0x8, addend: 0x0, symName: __ZN8ElectronC2Ev, symObjAddr: 0xAC, symBinAddr: 0x100006454, symSize: 0x48 }
  - { offsetInCU: 0x58F5, offset: 0x2D31A, size: 0x8, addend: 0x0, symName: __ZN8ParticleD2Ev, symObjAddr: 0x14, symBinAddr: 0x10000641C, symSize: 0x38 }
  - { offsetInCU: 0x5970, offset: 0x32C9A, size: 0x8, addend: 0x0, symName: __ZStL8__ioinit, symObjAddr: 0x3AA60, symBinAddr: 0x100014006, symSize: 0x0 }
  - { offsetInCU: 0x5BDE, offset: 0x32F08, size: 0x8, addend: 0x0, symName: __ZL18electron_rest_mass, symObjAddr: 0x1740, symBinAddr: 0x100008FD8, symSize: 0x0 }
  - { offsetInCU: 0x6033, offset: 0x3335D, size: 0x8, addend: 0x0, symName: __GLOBAL__sub_I_Photon.cpp, symObjAddr: 0x1978, symBinAddr: 0x100007BBC, symSize: 0x1C }
  - { offsetInCU: 0x605A, offset: 0x33384, size: 0x8, addend: 0x0, symName: __Z41__static_initialization_and_destruction_0ii, symObjAddr: 0x1918, symBinAddr: 0x100007B5C, symSize: 0x60 }
  - { offsetInCU: 0x6069, offset: 0x33393, size: 0x8, addend: 0x0, symName: __ZSt19__relocate_object_aISt10unique_ptrI8ElectronSt14default_deleteIS1_EES4_SaIS4_EEvPT_PT0_RT1_, symObjAddr: 0x16EC, symBinAddr: 0x100007B10, symSize: 0x4C }
  - { offsetInCU: 0x60D0, offset: 0x333FA, size: 0x8, addend: 0x0, symName: __ZNK9__gnu_cxx13new_allocatorISt10unique_ptrI8ElectronSt14default_deleteIS2_EEE8max_sizeEv, symObjAddr: 0x16D0, symBinAddr: 0x100007AF4, symSize: 0x1C }
  - { offsetInCU: 0x60F4, offset: 0x3341E, size: 0x8, addend: 0x0, symName: __ZSt14__relocate_a_1IPSt10unique_ptrI8ElectronSt14default_deleteIS1_EES5_SaIS4_EET0_T_S8_S7_RT1_, symObjAddr: 0x164C, symBinAddr: 0x100007A70, symSize: 0x84 }
  - { offsetInCU: 0x6177, offset: 0x334A1, size: 0x8, addend: 0x0, symName: __ZSt12__niter_baseIPSt10unique_ptrI8ElectronSt14default_deleteIS1_EEET_S6_, symObjAddr: 0x1638, symBinAddr: 0x100007A5C, symSize: 0x14 }
  - { offsetInCU: 0x61A8, offset: 0x334D2, size: 0x8, addend: 0x0, symName: __ZNSt16allocator_traitsISaISt10unique_ptrI8ElectronSt14default_deleteIS1_EEEE8max_sizeERKS5_, symObjAddr: 0x15E4, symBinAddr: 0x100007A40, symSize: 0x1C }
  - { offsetInCU: 0x6225, offset: 0x3354F, size: 0x8, addend: 0x0, symName: __ZNSt10_Head_baseILm1ESt14default_deleteI8ElectronELb1EEC2Ev, symObjAddr: 0x15BC, symBinAddr: 0x100007A2C, symSize: 0x14 }
  - { offsetInCU: 0x620D, offset: 0x33537, size: 0x8, addend: 0x0, symName: __ZSt12__relocate_aIPSt10unique_ptrI8ElectronSt14default_deleteIS1_EES5_SaIS4_EET0_T_S8_S7_RT1_, symObjAddr: 0x1560, symBinAddr: 0x1000079D0, symSize: 0x5C }
  - { offsetInCU: 0x6284, offset: 0x335AE, size: 0x8, addend: 0x0, symName: __ZN9__gnu_cxx13new_allocatorISt10unique_ptrI8ElectronSt14default_deleteIS2_EEE8allocateEmPKv, symObjAddr: 0x14E8, symBinAddr: 0x100007958, symSize: 0x78 }
  - { offsetInCU: 0x62D4, offset: 0x335FE, size: 0x8, addend: 0x0, symName: __ZNK9__gnu_cxx13new_allocatorISt10unique_ptrI8ElectronSt14default_deleteIS2_EEE11_M_max_sizeEv, symObjAddr: 0x14D4, symBinAddr: 0x100007944, symSize: 0x14 }
  - { offsetInCU: 0x62FC, offset: 0x33626, size: 0x8, addend: 0x0, symName: __ZNKSt12_Vector_baseISt10unique_ptrI8ElectronSt14default_deleteIS1_EESaIS4_EE19_M_get_Tp_allocatorEv, symObjAddr: 0x14C0, symBinAddr: 0x100007930, symSize: 0x14 }
  - { offsetInCU: 0x6320, offset: 0x3364A, size: 0x8, addend: 0x0, symName: __ZNSt6vectorISt10unique_ptrI8ElectronSt14default_deleteIS1_EESaIS4_EE11_S_max_sizeERKS5_, symObjAddr: 0x1488, symBinAddr: 0x1000078F8, symSize: 0x38 }
  - { offsetInCU: 0x63CD, offset: 0x336F7, size: 0x8, addend: 0x0, symName: __ZNSt11_Tuple_implILm1EJSt14default_deleteI8ElectronEEEC2EOS3_, symObjAddr: 0x1470, symBinAddr: 0x1000078E0, symSize: 0x18 }
  - { offsetInCU: 0x63C2, offset: 0x336EC, size: 0x8, addend: 0x0, symName: __ZSt4moveIRSt5tupleIJP8ElectronSt14default_deleteIS1_EEEEONSt16remove_referenceIT_E4typeEOS8_, symObjAddr: 0x145C, symBinAddr: 0x1000078CC, symSize: 0x14 }
  - { offsetInCU: 0x6434, offset: 0x3375E, size: 0x8, addend: 0x0, symName: __ZNSt10_Head_baseILm0EP8ElectronLb0EEC2Ev, symObjAddr: 0x1410, symBinAddr: 0x1000078B0, symSize: 0x1C }
  - { offsetInCU: 0x6483, offset: 0x337AD, size: 0x8, addend: 0x0, symName: __ZNSt11_Tuple_implILm1EJSt14default_deleteI8ElectronEEEC2Ev, symObjAddr: 0x13F0, symBinAddr: 0x100007890, symSize: 0x20 }
  - { offsetInCU: 0x6470, offset: 0x3379A, size: 0x8, addend: 0x0, symName: __ZN9__gnu_cxx13new_allocatorISt10unique_ptrI8ElectronSt14default_deleteIS2_EEE7destroyIS5_EEvPT_, symObjAddr: 0x13CC, symBinAddr: 0x10000786C, symSize: 0x24 }
  - { offsetInCU: 0x64AC, offset: 0x337D6, size: 0x8, addend: 0x0, symName: __ZNSt6vectorISt10unique_ptrI8ElectronSt14default_deleteIS1_EESaIS4_EE14_S_do_relocateEPS4_S7_S7_RS5_St17integral_constantIbLb1EE, symObjAddr: 0x1394, symBinAddr: 0x100007834, symSize: 0x38 }
  - { offsetInCU: 0x650D, offset: 0x33837, size: 0x8, addend: 0x0, symName: __ZNSt16allocator_traitsISaISt10unique_ptrI8ElectronSt14default_deleteIS1_EEEE8allocateERS5_m, symObjAddr: 0x136C, symBinAddr: 0x10000780C, symSize: 0x28 }
  - { offsetInCU: 0x6549, offset: 0x33873, size: 0x8, addend: 0x0, symName: __ZNKSt6vectorISt10unique_ptrI8ElectronSt14default_deleteIS1_EESaIS4_EE4sizeEv, symObjAddr: 0x130C, symBinAddr: 0x1000077E4, symSize: 0x28 }
  - { offsetInCU: 0x6571, offset: 0x3389B, size: 0x8, addend: 0x0, symName: __ZNKSt6vectorISt10unique_ptrI8ElectronSt14default_deleteIS1_EESaIS4_EE8max_sizeEv, symObjAddr: 0x12EC, symBinAddr: 0x1000077C4, symSize: 0x20 }
  - { offsetInCU: 0x65FA, offset: 0x33924, size: 0x8, addend: 0x0, symName: __ZNSt15__uniq_ptr_implI8ElectronSt14default_deleteIS0_EEC2EOS3_, symObjAddr: 0x12A4, symBinAddr: 0x10000777C, symSize: 0x48 }
  - { offsetInCU: 0x663D, offset: 0x33967, size: 0x8, addend: 0x0, symName: __ZNSt5tupleIJP8ElectronSt14default_deleteIS0_EEEC1EOS4_, symObjAddr: 0x127C, symBinAddr: 0x100007754, symSize: 0x28 }
  - { offsetInCU: 0x6693, offset: 0x339BD, size: 0x8, addend: 0x0, symName: __ZNSt11_Tuple_implILm0EJP8ElectronSt14default_deleteIS0_EEEC2EOS4_, symObjAddr: 0x1244, symBinAddr: 0x10000771C, symSize: 0x38 }
  - { offsetInCU: 0x66D6, offset: 0x33A00, size: 0x8, addend: 0x0, symName: __ZNSt11_Tuple_implILm0EJP8ElectronSt14default_deleteIS0_EEEC2Ev, symObjAddr: 0x11E4, symBinAddr: 0x1000076F4, symSize: 0x28 }
  - { offsetInCU: 0x66BF, offset: 0x339E9, size: 0x8, addend: 0x0, symName: __ZNK9__gnu_cxx17__normal_iteratorIPSt10unique_ptrI8ElectronSt14default_deleteIS2_EESt6vectorIS5_SaIS5_EEEdeEv, symObjAddr: 0x1198, symBinAddr: 0x1000076DC, symSize: 0x18 }
  - { offsetInCU: 0x66E7, offset: 0x33A11, size: 0x8, addend: 0x0, symName: __ZNK9__gnu_cxx17__normal_iteratorIPSt10unique_ptrI8ElectronSt14default_deleteIS2_EESt6vectorIS5_SaIS5_EEEmiEl, symObjAddr: 0x1154, symBinAddr: 0x100007698, symSize: 0x44 }
  - { offsetInCU: 0x671B, offset: 0x33A45, size: 0x8, addend: 0x0, symName: __ZNSt16allocator_traitsISaISt10unique_ptrI8ElectronSt14default_deleteIS1_EEEE7destroyIS4_EEvRS5_PT_, symObjAddr: 0x112C, symBinAddr: 0x100007670, symSize: 0x28 }
  - { offsetInCU: 0x6760, offset: 0x33A8A, size: 0x8, addend: 0x0, symName: __ZNK9__gnu_cxx17__normal_iteratorIPSt10unique_ptrI8ElectronSt14default_deleteIS2_EESt6vectorIS5_SaIS5_EEE4baseEv, symObjAddr: 0x1118, symBinAddr: 0x10000765C, symSize: 0x14 }
  - { offsetInCU: 0x6784, offset: 0x33AAE, size: 0x8, addend: 0x0, symName: __ZNSt6vectorISt10unique_ptrI8ElectronSt14default_deleteIS1_EESaIS4_EE11_S_relocateEPS4_S7_S7_RS5_, symObjAddr: 0x10E4, symBinAddr: 0x100007628, symSize: 0x34 }
  - { offsetInCU: 0x67E0, offset: 0x33B0A, size: 0x8, addend: 0x0, symName: __ZNSt12_Vector_baseISt10unique_ptrI8ElectronSt14default_deleteIS1_EESaIS4_EE11_M_allocateEm, symObjAddr: 0x10AC, symBinAddr: 0x1000075F0, symSize: 0x38 }
  - { offsetInCU: 0x681A, offset: 0x33B44, size: 0x8, addend: 0x0, symName: __ZN9__gnu_cxxmiIPSt10unique_ptrI8ElectronSt14default_deleteIS2_EESt6vectorIS5_SaIS5_EEEENS_17__normal_iteratorIT_T0_E15difference_typeERKSD_SG_, symObjAddr: 0x106C, symBinAddr: 0x1000075B0, symSize: 0x40 }
  - { offsetInCU: 0x6868, offset: 0x33B92, size: 0x8, addend: 0x0, symName: __ZNSt6vectorISt10unique_ptrI8ElectronSt14default_deleteIS1_EESaIS4_EE5beginEv, symObjAddr: 0x1048, symBinAddr: 0x10000758C, symSize: 0x24 }
  - { offsetInCU: 0x6890, offset: 0x33BBA, size: 0x8, addend: 0x0, symName: __ZNKSt6vectorISt10unique_ptrI8ElectronSt14default_deleteIS1_EESaIS4_EE12_M_check_lenEmPKc, symObjAddr: 0xF7C, symBinAddr: 0x1000074C0, symSize: 0xCC }
  - { offsetInCU: 0x697B, offset: 0x33CA5, size: 0x8, addend: 0x0, symName: __ZN9__gnu_cxx17__normal_iteratorIPSt10unique_ptrI8ElectronSt14default_deleteIS2_EESt6vectorIS5_SaIS5_EEEC1ERKS6_, symObjAddr: 0xF54, symBinAddr: 0x100007498, symSize: 0x28 }
  - { offsetInCU: 0x693C, offset: 0x33C66, size: 0x8, addend: 0x0, symName: __ZN9__gnu_cxx13new_allocatorISt10unique_ptrI8ElectronSt14default_deleteIS2_EEE9constructIS5_JS5_EEEvPT_DpOT0_, symObjAddr: 0xF08, symBinAddr: 0x10000744C, symSize: 0x4C }
  - { offsetInCU: 0x69EA, offset: 0x33D14, size: 0x8, addend: 0x0, symName: __ZNSt10unique_ptrI8ElectronSt14default_deleteIS0_EEC1EOS3_, symObjAddr: 0xEE0, symBinAddr: 0x100007424, symSize: 0x28 }
  - { offsetInCU: 0x6A42, offset: 0x33D6C, size: 0x8, addend: 0x0, symName: __ZNSt15__uniq_ptr_dataI8ElectronSt14default_deleteIS0_ELb1ELb1EEC1EOS3_, symObjAddr: 0xEB8, symBinAddr: 0x1000073FC, symSize: 0x28 }
  - { offsetInCU: 0x6A89, offset: 0x33DB3, size: 0x8, addend: 0x0, symName: __ZNSt5tupleIJP8ElectronSt14default_deleteIS0_EEEC1ILb1ELb1EEEv, symObjAddr: 0xE60, symBinAddr: 0x1000073DC, symSize: 0x20 }
  - { offsetInCU: 0x6A7D, offset: 0x33DA7, size: 0x8, addend: 0x0, symName: __ZNSt6vectorISt10unique_ptrI8ElectronSt14default_deleteIS1_EESaIS4_EE4backEv, symObjAddr: 0xDAC, symBinAddr: 0x1000073A4, symSize: 0x38 }
  - { offsetInCU: 0x6AA5, offset: 0x33DCF, size: 0x8, addend: 0x0, symName: __ZNSt6vectorISt10unique_ptrI8ElectronSt14default_deleteIS1_EESaIS4_EE17_M_realloc_insertIJS4_EEEvN9__gnu_cxx17__normal_iteratorIPS4_S6_EEDpOT_, symObjAddr: 0xC34, symBinAddr: 0x10000722C, symSize: 0x178 }
  - { offsetInCU: 0x6B5B, offset: 0x33E85, size: 0x8, addend: 0x0, symName: __ZNSt6vectorISt10unique_ptrI8ElectronSt14default_deleteIS1_EESaIS4_EE3endEv, symObjAddr: 0xC0C, symBinAddr: 0x100007204, symSize: 0x28 }
  - { offsetInCU: 0x6B7F, offset: 0x33EA9, size: 0x8, addend: 0x0, symName: __ZNSt16allocator_traitsISaISt10unique_ptrI8ElectronSt14default_deleteIS1_EEEE9constructIS4_JS4_EEEvRS5_PT_DpOT0_, symObjAddr: 0xBD4, symBinAddr: 0x1000071CC, symSize: 0x38 }
  - { offsetInCU: 0x6BE1, offset: 0x33F0B, size: 0x8, addend: 0x0, symName: __ZSt7forwardISt10unique_ptrI8ElectronSt14default_deleteIS1_EEEOT_RNSt16remove_referenceIS5_E4typeE, symObjAddr: 0xBC0, symBinAddr: 0x1000071B8, symSize: 0x14 }
  - { offsetInCU: 0x6C76, offset: 0x33FA0, size: 0x8, addend: 0x0, symName: __ZNSt15__uniq_ptr_implI8ElectronSt14default_deleteIS0_EEC2EPS0_, symObjAddr: 0xB4C, symBinAddr: 0x10000717C, symSize: 0x3C }
  - { offsetInCU: 0x6CCF, offset: 0x33FF9, size: 0x8, addend: 0x0, symName: __ZN9__gnu_cxx13new_allocatorISt10unique_ptrI8ElectronSt14default_deleteIS2_EEEC2Ev, symObjAddr: 0xAE0, symBinAddr: 0x100007168, symSize: 0x14 }
  - { offsetInCU: 0x6CA5, offset: 0x33FCF, size: 0x8, addend: 0x0, symName: __ZNSt6vectorISt10unique_ptrI8ElectronSt14default_deleteIS1_EESaIS4_EE12emplace_backIJS4_EEERS4_DpOT_, symObjAddr: 0xA40, symBinAddr: 0x1000070C8, symSize: 0xA0 }
  - { offsetInCU: 0x6CE9, offset: 0x34013, size: 0x8, addend: 0x0, symName: __ZSt4moveIRSt10unique_ptrI8ElectronSt14default_deleteIS1_EEEONSt16remove_referenceIT_E4typeEOS7_, symObjAddr: 0xA2C, symBinAddr: 0x1000070B4, symSize: 0x14 }
  - { offsetInCU: 0x6D89, offset: 0x340B3, size: 0x8, addend: 0x0, symName: __ZNSt10unique_ptrI8ElectronSt14default_deleteIS0_EEC1IS2_vEEPS0_, symObjAddr: 0x980, symBinAddr: 0x10000708C, symSize: 0x28 }
  - { offsetInCU: 0x6E04, offset: 0x3412E, size: 0x8, addend: 0x0, symName: __ZNSt15__uniq_ptr_dataI8ElectronSt14default_deleteIS0_ELb1ELb1EECI1St15__uniq_ptr_implIS0_S2_EEPS0_, symObjAddr: 0x958, symBinAddr: 0x100007064, symSize: 0x28 }
  - { offsetInCU: 0x6E50, offset: 0x3417A, size: 0x8, addend: 0x0, symName: __ZNSt12_Vector_baseISt10unique_ptrI8ElectronSt14default_deleteIS1_EESaIS4_EE17_Vector_impl_dataC2Ev, symObjAddr: 0x888, symBinAddr: 0x100007038, symSize: 0x2C }
  - { offsetInCU: 0x6E65, offset: 0x3418F, size: 0x8, addend: 0x0, symName: __ZNSaISt10unique_ptrI8ElectronSt14default_deleteIS0_EEEC2Ev, symObjAddr: 0x868, symBinAddr: 0x100007018, symSize: 0x20 }
  - { offsetInCU: 0x6E52, offset: 0x3417C, size: 0x8, addend: 0x0, symName: __ZNSt6vectorISt10unique_ptrI8ElectronSt14default_deleteIS1_EESaIS4_EE9push_backEOS4_, symObjAddr: 0x838, symBinAddr: 0x100006FE8, symSize: 0x30 }
  - { offsetInCU: 0x6E86, offset: 0x341B0, size: 0x8, addend: 0x0, symName: __ZSt11make_uniqueI8ElectronJdEENSt9_MakeUniqIT_E15__single_objectEDpOT0_, symObjAddr: 0x758, symBinAddr: 0x100006F70, symSize: 0x78 }
  - { offsetInCU: 0x6F39, offset: 0x34263, size: 0x8, addend: 0x0, symName: __ZNSt12_Vector_baseISt10unique_ptrI8ElectronSt14default_deleteIS1_EESaIS4_EE12_Vector_implC1Ev, symObjAddr: 0x65C, symBinAddr: 0x100006F48, symSize: 0x28 }
  - { offsetInCU: 0x6F30, offset: 0x3425A, size: 0x8, addend: 0x0, symName: __Z15pair_productionRK6Photon, symObjAddr: 0x4E8, symBinAddr: 0x100006DD4, symSize: 0x174 }
  - { offsetInCU: 0x6F7B, offset: 0x342A5, size: 0x8, addend: 0x0, symName: __Z14compton_effectR6Photond, symObjAddr: 0x450, symBinAddr: 0x100006D3C, symSize: 0x98 }
  - { offsetInCU: 0x6FCF, offset: 0x342F9, size: 0x8, addend: 0x0, symName: __Z20photoelectric_effectRK6Photon, symObjAddr: 0x438, symBinAddr: 0x100006D24, symSize: 0x18 }
  - { offsetInCU: 0x6FCB, offset: 0x342F5, size: 0x8, addend: 0x0, symName: __ZN6Photon10set_energyEd, symObjAddr: 0x414, symBinAddr: 0x100006D00, symSize: 0x24 }
  - { offsetInCU: 0x7002, offset: 0x3432C, size: 0x8, addend: 0x0, symName: __ZN6Photon10print_dataEv, symObjAddr: 0x2CC, symBinAddr: 0x100006BB8, symSize: 0x148 }
  - { offsetInCU: 0x7056, offset: 0x34380, size: 0x8, addend: 0x0, symName: __ZN6PhotonD0Ev, symObjAddr: 0x2A4, symBinAddr: 0x100006B90, symSize: 0x28 }
  - { offsetInCU: 0x707F, offset: 0x343A9, size: 0x8, addend: 0x0, symName: __ZN6PhotonD1Ev, symObjAddr: 0x240, symBinAddr: 0x100006B2C, symSize: 0x64 }
  - { offsetInCU: 0x70A8, offset: 0x343D2, size: 0x8, addend: 0x0, symName: __ZN6PhotonD2Ev, symObjAddr: 0x1DC, symBinAddr: 0x100006AC8, symSize: 0x64 }
  - { offsetInCU: 0x70F2, offset: 0x3441C, size: 0x8, addend: 0x0, symName: __ZN6PhotonC1Ed, symObjAddr: 0x194, symBinAddr: 0x100006A80, symSize: 0x48 }
  - { offsetInCU: 0x7124, offset: 0x3444E, size: 0x8, addend: 0x0, symName: __ZN6PhotonC2Ed, symObjAddr: 0x14C, symBinAddr: 0x100006A38, symSize: 0x48 }
  - { offsetInCU: 0x716A, offset: 0x34494, size: 0x8, addend: 0x0, symName: __ZN6PhotonC1Ev, symObjAddr: 0x108, symBinAddr: 0x1000069F4, symSize: 0x44 }
  - { offsetInCU: 0x7193, offset: 0x344BD, size: 0x8, addend: 0x0, symName: __ZN6PhotonC2Ev, symObjAddr: 0xC4, symBinAddr: 0x1000069B0, symSize: 0x44 }
  - { offsetInCU: 0x720B, offset: 0x34535, size: 0x8, addend: 0x0, symName: __ZNSt6vectorISt10unique_ptrI8ElectronSt14default_deleteIS1_EESaIS4_EEC1Ev, symObjAddr: 0xA4, symBinAddr: 0x100006990, symSize: 0x20 }
  - { offsetInCU: 0x724F, offset: 0x34579, size: 0x8, addend: 0x0, symName: __ZNSt12_Vector_baseISt10unique_ptrI8ElectronSt14default_deleteIS1_EESaIS4_EEC2Ev, symObjAddr: 0x84, symBinAddr: 0x100006970, symSize: 0x20 }
...
